ARM GAS  C:\Users\LC\AppData\Local\Temp\cctO9Ld3.s 			page 1


   1              		.cpu cortex-m4
   2              		.arch armv7e-m
   3              		.fpu fpv4-sp-d16
   4              		.eabi_attribute 27, 1
   5              		.eabi_attribute 28, 1
   6              		.eabi_attribute 20, 1
   7              		.eabi_attribute 21, 1
   8              		.eabi_attribute 23, 3
   9              		.eabi_attribute 24, 1
  10              		.eabi_attribute 25, 1
  11              		.eabi_attribute 26, 1
  12              		.eabi_attribute 30, 1
  13              		.eabi_attribute 34, 1
  14              		.eabi_attribute 18, 4
  15              		.file	"stm32f4xx_hal_pwr_ex.c"
  16              		.text
  17              	.Ltext0:
  18              		.cfi_sections	.debug_frame
  19              		.section	.text.HAL_PWREx_EnableBkUpReg,"ax",%progbits
  20              		.align	1
  21              		.global	HAL_PWREx_EnableBkUpReg
  22              		.syntax unified
  23              		.thumb
  24              		.thumb_func
  26              	HAL_PWREx_EnableBkUpReg:
  27              	.LFB134:
  28              		.file 1 "C:/Users/LC/STM32Cube/Repository/STM32Cube_FW_F4_V1.28.0/Drivers/STM32F4xx_HAL_Driver/Src
   1:C:/Users/LC/STM32Cube/Repository/STM32Cube_FW_F4_V1.28.0/Drivers/STM32F4xx_HAL_Driver/Src\stm32f4xx_hal_pwr_ex.c **** /**
   2:C:/Users/LC/STM32Cube/Repository/STM32Cube_FW_F4_V1.28.0/Drivers/STM32F4xx_HAL_Driver/Src\stm32f4xx_hal_pwr_ex.c ****   ******************************************************************************
   3:C:/Users/LC/STM32Cube/Repository/STM32Cube_FW_F4_V1.28.0/Drivers/STM32F4xx_HAL_Driver/Src\stm32f4xx_hal_pwr_ex.c ****   * @file    stm32f4xx_hal_pwr_ex.c
   4:C:/Users/LC/STM32Cube/Repository/STM32Cube_FW_F4_V1.28.0/Drivers/STM32F4xx_HAL_Driver/Src\stm32f4xx_hal_pwr_ex.c ****   * @author  MCD Application Team
   5:C:/Users/LC/STM32Cube/Repository/STM32Cube_FW_F4_V1.28.0/Drivers/STM32F4xx_HAL_Driver/Src\stm32f4xx_hal_pwr_ex.c ****   * @brief   Extended PWR HAL module driver.
   6:C:/Users/LC/STM32Cube/Repository/STM32Cube_FW_F4_V1.28.0/Drivers/STM32F4xx_HAL_Driver/Src\stm32f4xx_hal_pwr_ex.c ****   *          This file provides firmware functions to manage the following 
   7:C:/Users/LC/STM32Cube/Repository/STM32Cube_FW_F4_V1.28.0/Drivers/STM32F4xx_HAL_Driver/Src\stm32f4xx_hal_pwr_ex.c ****   *          functionalities of PWR extension peripheral:           
   8:C:/Users/LC/STM32Cube/Repository/STM32Cube_FW_F4_V1.28.0/Drivers/STM32F4xx_HAL_Driver/Src\stm32f4xx_hal_pwr_ex.c ****   *           + Peripheral Extended features functions
   9:C:/Users/LC/STM32Cube/Repository/STM32Cube_FW_F4_V1.28.0/Drivers/STM32F4xx_HAL_Driver/Src\stm32f4xx_hal_pwr_ex.c ****   *         
  10:C:/Users/LC/STM32Cube/Repository/STM32Cube_FW_F4_V1.28.0/Drivers/STM32F4xx_HAL_Driver/Src\stm32f4xx_hal_pwr_ex.c ****   ******************************************************************************
  11:C:/Users/LC/STM32Cube/Repository/STM32Cube_FW_F4_V1.28.0/Drivers/STM32F4xx_HAL_Driver/Src\stm32f4xx_hal_pwr_ex.c ****   * @attention
  12:C:/Users/LC/STM32Cube/Repository/STM32Cube_FW_F4_V1.28.0/Drivers/STM32F4xx_HAL_Driver/Src\stm32f4xx_hal_pwr_ex.c ****   *
  13:C:/Users/LC/STM32Cube/Repository/STM32Cube_FW_F4_V1.28.0/Drivers/STM32F4xx_HAL_Driver/Src\stm32f4xx_hal_pwr_ex.c ****   * Copyright (c) 2017 STMicroelectronics.
  14:C:/Users/LC/STM32Cube/Repository/STM32Cube_FW_F4_V1.28.0/Drivers/STM32F4xx_HAL_Driver/Src\stm32f4xx_hal_pwr_ex.c ****   * All rights reserved.
  15:C:/Users/LC/STM32Cube/Repository/STM32Cube_FW_F4_V1.28.0/Drivers/STM32F4xx_HAL_Driver/Src\stm32f4xx_hal_pwr_ex.c ****   *
  16:C:/Users/LC/STM32Cube/Repository/STM32Cube_FW_F4_V1.28.0/Drivers/STM32F4xx_HAL_Driver/Src\stm32f4xx_hal_pwr_ex.c ****   * This software is licensed under terms that can be found in the LICENSE file in
  17:C:/Users/LC/STM32Cube/Repository/STM32Cube_FW_F4_V1.28.0/Drivers/STM32F4xx_HAL_Driver/Src\stm32f4xx_hal_pwr_ex.c ****   * the root directory of this software component.
  18:C:/Users/LC/STM32Cube/Repository/STM32Cube_FW_F4_V1.28.0/Drivers/STM32F4xx_HAL_Driver/Src\stm32f4xx_hal_pwr_ex.c ****   * If no LICENSE file comes with this software, it is provided AS-IS.
  19:C:/Users/LC/STM32Cube/Repository/STM32Cube_FW_F4_V1.28.0/Drivers/STM32F4xx_HAL_Driver/Src\stm32f4xx_hal_pwr_ex.c ****   ******************************************************************************
  20:C:/Users/LC/STM32Cube/Repository/STM32Cube_FW_F4_V1.28.0/Drivers/STM32F4xx_HAL_Driver/Src\stm32f4xx_hal_pwr_ex.c ****   */ 
  21:C:/Users/LC/STM32Cube/Repository/STM32Cube_FW_F4_V1.28.0/Drivers/STM32F4xx_HAL_Driver/Src\stm32f4xx_hal_pwr_ex.c **** 
  22:C:/Users/LC/STM32Cube/Repository/STM32Cube_FW_F4_V1.28.0/Drivers/STM32F4xx_HAL_Driver/Src\stm32f4xx_hal_pwr_ex.c **** /* Includes ------------------------------------------------------------------*/
  23:C:/Users/LC/STM32Cube/Repository/STM32Cube_FW_F4_V1.28.0/Drivers/STM32F4xx_HAL_Driver/Src\stm32f4xx_hal_pwr_ex.c **** #include "stm32f4xx_hal.h"
  24:C:/Users/LC/STM32Cube/Repository/STM32Cube_FW_F4_V1.28.0/Drivers/STM32F4xx_HAL_Driver/Src\stm32f4xx_hal_pwr_ex.c **** 
  25:C:/Users/LC/STM32Cube/Repository/STM32Cube_FW_F4_V1.28.0/Drivers/STM32F4xx_HAL_Driver/Src\stm32f4xx_hal_pwr_ex.c **** /** @addtogroup STM32F4xx_HAL_Driver
  26:C:/Users/LC/STM32Cube/Repository/STM32Cube_FW_F4_V1.28.0/Drivers/STM32F4xx_HAL_Driver/Src\stm32f4xx_hal_pwr_ex.c ****   * @{
  27:C:/Users/LC/STM32Cube/Repository/STM32Cube_FW_F4_V1.28.0/Drivers/STM32F4xx_HAL_Driver/Src\stm32f4xx_hal_pwr_ex.c ****   */
  28:C:/Users/LC/STM32Cube/Repository/STM32Cube_FW_F4_V1.28.0/Drivers/STM32F4xx_HAL_Driver/Src\stm32f4xx_hal_pwr_ex.c **** 
  29:C:/Users/LC/STM32Cube/Repository/STM32Cube_FW_F4_V1.28.0/Drivers/STM32F4xx_HAL_Driver/Src\stm32f4xx_hal_pwr_ex.c **** /** @defgroup PWREx PWREx
  30:C:/Users/LC/STM32Cube/Repository/STM32Cube_FW_F4_V1.28.0/Drivers/STM32F4xx_HAL_Driver/Src\stm32f4xx_hal_pwr_ex.c ****   * @brief PWR HAL module driver
ARM GAS  C:\Users\LC\AppData\Local\Temp\cctO9Ld3.s 			page 2


  31:C:/Users/LC/STM32Cube/Repository/STM32Cube_FW_F4_V1.28.0/Drivers/STM32F4xx_HAL_Driver/Src\stm32f4xx_hal_pwr_ex.c ****   * @{
  32:C:/Users/LC/STM32Cube/Repository/STM32Cube_FW_F4_V1.28.0/Drivers/STM32F4xx_HAL_Driver/Src\stm32f4xx_hal_pwr_ex.c ****   */
  33:C:/Users/LC/STM32Cube/Repository/STM32Cube_FW_F4_V1.28.0/Drivers/STM32F4xx_HAL_Driver/Src\stm32f4xx_hal_pwr_ex.c **** 
  34:C:/Users/LC/STM32Cube/Repository/STM32Cube_FW_F4_V1.28.0/Drivers/STM32F4xx_HAL_Driver/Src\stm32f4xx_hal_pwr_ex.c **** #ifdef HAL_PWR_MODULE_ENABLED
  35:C:/Users/LC/STM32Cube/Repository/STM32Cube_FW_F4_V1.28.0/Drivers/STM32F4xx_HAL_Driver/Src\stm32f4xx_hal_pwr_ex.c **** 
  36:C:/Users/LC/STM32Cube/Repository/STM32Cube_FW_F4_V1.28.0/Drivers/STM32F4xx_HAL_Driver/Src\stm32f4xx_hal_pwr_ex.c **** /* Private typedef -----------------------------------------------------------*/
  37:C:/Users/LC/STM32Cube/Repository/STM32Cube_FW_F4_V1.28.0/Drivers/STM32F4xx_HAL_Driver/Src\stm32f4xx_hal_pwr_ex.c **** /* Private define ------------------------------------------------------------*/
  38:C:/Users/LC/STM32Cube/Repository/STM32Cube_FW_F4_V1.28.0/Drivers/STM32F4xx_HAL_Driver/Src\stm32f4xx_hal_pwr_ex.c **** /** @addtogroup PWREx_Private_Constants
  39:C:/Users/LC/STM32Cube/Repository/STM32Cube_FW_F4_V1.28.0/Drivers/STM32F4xx_HAL_Driver/Src\stm32f4xx_hal_pwr_ex.c ****   * @{
  40:C:/Users/LC/STM32Cube/Repository/STM32Cube_FW_F4_V1.28.0/Drivers/STM32F4xx_HAL_Driver/Src\stm32f4xx_hal_pwr_ex.c ****   */    
  41:C:/Users/LC/STM32Cube/Repository/STM32Cube_FW_F4_V1.28.0/Drivers/STM32F4xx_HAL_Driver/Src\stm32f4xx_hal_pwr_ex.c **** #define PWR_OVERDRIVE_TIMEOUT_VALUE  1000U
  42:C:/Users/LC/STM32Cube/Repository/STM32Cube_FW_F4_V1.28.0/Drivers/STM32F4xx_HAL_Driver/Src\stm32f4xx_hal_pwr_ex.c **** #define PWR_UDERDRIVE_TIMEOUT_VALUE  1000U
  43:C:/Users/LC/STM32Cube/Repository/STM32Cube_FW_F4_V1.28.0/Drivers/STM32F4xx_HAL_Driver/Src\stm32f4xx_hal_pwr_ex.c **** #define PWR_BKPREG_TIMEOUT_VALUE     1000U
  44:C:/Users/LC/STM32Cube/Repository/STM32Cube_FW_F4_V1.28.0/Drivers/STM32F4xx_HAL_Driver/Src\stm32f4xx_hal_pwr_ex.c **** #define PWR_VOSRDY_TIMEOUT_VALUE     1000U
  45:C:/Users/LC/STM32Cube/Repository/STM32Cube_FW_F4_V1.28.0/Drivers/STM32F4xx_HAL_Driver/Src\stm32f4xx_hal_pwr_ex.c **** /**
  46:C:/Users/LC/STM32Cube/Repository/STM32Cube_FW_F4_V1.28.0/Drivers/STM32F4xx_HAL_Driver/Src\stm32f4xx_hal_pwr_ex.c ****   * @}
  47:C:/Users/LC/STM32Cube/Repository/STM32Cube_FW_F4_V1.28.0/Drivers/STM32F4xx_HAL_Driver/Src\stm32f4xx_hal_pwr_ex.c ****   */
  48:C:/Users/LC/STM32Cube/Repository/STM32Cube_FW_F4_V1.28.0/Drivers/STM32F4xx_HAL_Driver/Src\stm32f4xx_hal_pwr_ex.c **** 
  49:C:/Users/LC/STM32Cube/Repository/STM32Cube_FW_F4_V1.28.0/Drivers/STM32F4xx_HAL_Driver/Src\stm32f4xx_hal_pwr_ex.c ****    
  50:C:/Users/LC/STM32Cube/Repository/STM32Cube_FW_F4_V1.28.0/Drivers/STM32F4xx_HAL_Driver/Src\stm32f4xx_hal_pwr_ex.c **** /* Private macro -------------------------------------------------------------*/
  51:C:/Users/LC/STM32Cube/Repository/STM32Cube_FW_F4_V1.28.0/Drivers/STM32F4xx_HAL_Driver/Src\stm32f4xx_hal_pwr_ex.c **** /* Private variables ---------------------------------------------------------*/
  52:C:/Users/LC/STM32Cube/Repository/STM32Cube_FW_F4_V1.28.0/Drivers/STM32F4xx_HAL_Driver/Src\stm32f4xx_hal_pwr_ex.c **** /* Private function prototypes -----------------------------------------------*/
  53:C:/Users/LC/STM32Cube/Repository/STM32Cube_FW_F4_V1.28.0/Drivers/STM32F4xx_HAL_Driver/Src\stm32f4xx_hal_pwr_ex.c **** /* Private functions ---------------------------------------------------------*/
  54:C:/Users/LC/STM32Cube/Repository/STM32Cube_FW_F4_V1.28.0/Drivers/STM32F4xx_HAL_Driver/Src\stm32f4xx_hal_pwr_ex.c **** /** @defgroup PWREx_Exported_Functions PWREx Exported Functions
  55:C:/Users/LC/STM32Cube/Repository/STM32Cube_FW_F4_V1.28.0/Drivers/STM32F4xx_HAL_Driver/Src\stm32f4xx_hal_pwr_ex.c ****   *  @{
  56:C:/Users/LC/STM32Cube/Repository/STM32Cube_FW_F4_V1.28.0/Drivers/STM32F4xx_HAL_Driver/Src\stm32f4xx_hal_pwr_ex.c ****   */
  57:C:/Users/LC/STM32Cube/Repository/STM32Cube_FW_F4_V1.28.0/Drivers/STM32F4xx_HAL_Driver/Src\stm32f4xx_hal_pwr_ex.c **** 
  58:C:/Users/LC/STM32Cube/Repository/STM32Cube_FW_F4_V1.28.0/Drivers/STM32F4xx_HAL_Driver/Src\stm32f4xx_hal_pwr_ex.c **** /** @defgroup PWREx_Exported_Functions_Group1 Peripheral Extended features functions 
  59:C:/Users/LC/STM32Cube/Repository/STM32Cube_FW_F4_V1.28.0/Drivers/STM32F4xx_HAL_Driver/Src\stm32f4xx_hal_pwr_ex.c ****   *  @brief Peripheral Extended features functions 
  60:C:/Users/LC/STM32Cube/Repository/STM32Cube_FW_F4_V1.28.0/Drivers/STM32F4xx_HAL_Driver/Src\stm32f4xx_hal_pwr_ex.c ****   *
  61:C:/Users/LC/STM32Cube/Repository/STM32Cube_FW_F4_V1.28.0/Drivers/STM32F4xx_HAL_Driver/Src\stm32f4xx_hal_pwr_ex.c **** @verbatim   
  62:C:/Users/LC/STM32Cube/Repository/STM32Cube_FW_F4_V1.28.0/Drivers/STM32F4xx_HAL_Driver/Src\stm32f4xx_hal_pwr_ex.c **** 
  63:C:/Users/LC/STM32Cube/Repository/STM32Cube_FW_F4_V1.28.0/Drivers/STM32F4xx_HAL_Driver/Src\stm32f4xx_hal_pwr_ex.c ****  ===============================================================================
  64:C:/Users/LC/STM32Cube/Repository/STM32Cube_FW_F4_V1.28.0/Drivers/STM32F4xx_HAL_Driver/Src\stm32f4xx_hal_pwr_ex.c ****                  ##### Peripheral extended features functions #####
  65:C:/Users/LC/STM32Cube/Repository/STM32Cube_FW_F4_V1.28.0/Drivers/STM32F4xx_HAL_Driver/Src\stm32f4xx_hal_pwr_ex.c ****  ===============================================================================
  66:C:/Users/LC/STM32Cube/Repository/STM32Cube_FW_F4_V1.28.0/Drivers/STM32F4xx_HAL_Driver/Src\stm32f4xx_hal_pwr_ex.c **** 
  67:C:/Users/LC/STM32Cube/Repository/STM32Cube_FW_F4_V1.28.0/Drivers/STM32F4xx_HAL_Driver/Src\stm32f4xx_hal_pwr_ex.c ****     *** Main and Backup Regulators configuration ***
  68:C:/Users/LC/STM32Cube/Repository/STM32Cube_FW_F4_V1.28.0/Drivers/STM32F4xx_HAL_Driver/Src\stm32f4xx_hal_pwr_ex.c ****     ================================================
  69:C:/Users/LC/STM32Cube/Repository/STM32Cube_FW_F4_V1.28.0/Drivers/STM32F4xx_HAL_Driver/Src\stm32f4xx_hal_pwr_ex.c ****     [..] 
  70:C:/Users/LC/STM32Cube/Repository/STM32Cube_FW_F4_V1.28.0/Drivers/STM32F4xx_HAL_Driver/Src\stm32f4xx_hal_pwr_ex.c ****       (+) The backup domain includes 4 Kbytes of backup SRAM accessible only from 
  71:C:/Users/LC/STM32Cube/Repository/STM32Cube_FW_F4_V1.28.0/Drivers/STM32F4xx_HAL_Driver/Src\stm32f4xx_hal_pwr_ex.c ****           the CPU, and address in 32-bit, 16-bit or 8-bit mode. Its content is 
  72:C:/Users/LC/STM32Cube/Repository/STM32Cube_FW_F4_V1.28.0/Drivers/STM32F4xx_HAL_Driver/Src\stm32f4xx_hal_pwr_ex.c ****           retained even in Standby or VBAT mode when the low power backup regulator
  73:C:/Users/LC/STM32Cube/Repository/STM32Cube_FW_F4_V1.28.0/Drivers/STM32F4xx_HAL_Driver/Src\stm32f4xx_hal_pwr_ex.c ****           is enabled. It can be considered as an internal EEPROM when VBAT is 
  74:C:/Users/LC/STM32Cube/Repository/STM32Cube_FW_F4_V1.28.0/Drivers/STM32F4xx_HAL_Driver/Src\stm32f4xx_hal_pwr_ex.c ****           always present. You can use the HAL_PWREx_EnableBkUpReg() function to 
  75:C:/Users/LC/STM32Cube/Repository/STM32Cube_FW_F4_V1.28.0/Drivers/STM32F4xx_HAL_Driver/Src\stm32f4xx_hal_pwr_ex.c ****           enable the low power backup regulator. 
  76:C:/Users/LC/STM32Cube/Repository/STM32Cube_FW_F4_V1.28.0/Drivers/STM32F4xx_HAL_Driver/Src\stm32f4xx_hal_pwr_ex.c **** 
  77:C:/Users/LC/STM32Cube/Repository/STM32Cube_FW_F4_V1.28.0/Drivers/STM32F4xx_HAL_Driver/Src\stm32f4xx_hal_pwr_ex.c ****       (+) When the backup domain is supplied by VDD (analog switch connected to VDD) 
  78:C:/Users/LC/STM32Cube/Repository/STM32Cube_FW_F4_V1.28.0/Drivers/STM32F4xx_HAL_Driver/Src\stm32f4xx_hal_pwr_ex.c ****           the backup SRAM is powered from VDD which replaces the VBAT power supply to 
  79:C:/Users/LC/STM32Cube/Repository/STM32Cube_FW_F4_V1.28.0/Drivers/STM32F4xx_HAL_Driver/Src\stm32f4xx_hal_pwr_ex.c ****           save battery life.
  80:C:/Users/LC/STM32Cube/Repository/STM32Cube_FW_F4_V1.28.0/Drivers/STM32F4xx_HAL_Driver/Src\stm32f4xx_hal_pwr_ex.c **** 
  81:C:/Users/LC/STM32Cube/Repository/STM32Cube_FW_F4_V1.28.0/Drivers/STM32F4xx_HAL_Driver/Src\stm32f4xx_hal_pwr_ex.c ****       (+) The backup SRAM is not mass erased by a tamper event. It is read 
  82:C:/Users/LC/STM32Cube/Repository/STM32Cube_FW_F4_V1.28.0/Drivers/STM32F4xx_HAL_Driver/Src\stm32f4xx_hal_pwr_ex.c ****           protected to prevent confidential data, such as cryptographic private 
  83:C:/Users/LC/STM32Cube/Repository/STM32Cube_FW_F4_V1.28.0/Drivers/STM32F4xx_HAL_Driver/Src\stm32f4xx_hal_pwr_ex.c ****           key, from being accessed. The backup SRAM can be erased only through 
  84:C:/Users/LC/STM32Cube/Repository/STM32Cube_FW_F4_V1.28.0/Drivers/STM32F4xx_HAL_Driver/Src\stm32f4xx_hal_pwr_ex.c ****           the Flash interface when a protection level change from level 1 to 
  85:C:/Users/LC/STM32Cube/Repository/STM32Cube_FW_F4_V1.28.0/Drivers/STM32F4xx_HAL_Driver/Src\stm32f4xx_hal_pwr_ex.c ****           level 0 is requested. 
  86:C:/Users/LC/STM32Cube/Repository/STM32Cube_FW_F4_V1.28.0/Drivers/STM32F4xx_HAL_Driver/Src\stm32f4xx_hal_pwr_ex.c ****       -@- Refer to the description of Read protection (RDP) in the Flash 
  87:C:/Users/LC/STM32Cube/Repository/STM32Cube_FW_F4_V1.28.0/Drivers/STM32F4xx_HAL_Driver/Src\stm32f4xx_hal_pwr_ex.c ****           programming manual.
ARM GAS  C:\Users\LC\AppData\Local\Temp\cctO9Ld3.s 			page 3


  88:C:/Users/LC/STM32Cube/Repository/STM32Cube_FW_F4_V1.28.0/Drivers/STM32F4xx_HAL_Driver/Src\stm32f4xx_hal_pwr_ex.c **** 
  89:C:/Users/LC/STM32Cube/Repository/STM32Cube_FW_F4_V1.28.0/Drivers/STM32F4xx_HAL_Driver/Src\stm32f4xx_hal_pwr_ex.c ****       (+) The main internal regulator can be configured to have a tradeoff between 
  90:C:/Users/LC/STM32Cube/Repository/STM32Cube_FW_F4_V1.28.0/Drivers/STM32F4xx_HAL_Driver/Src\stm32f4xx_hal_pwr_ex.c ****           performance and power consumption when the device does not operate at 
  91:C:/Users/LC/STM32Cube/Repository/STM32Cube_FW_F4_V1.28.0/Drivers/STM32F4xx_HAL_Driver/Src\stm32f4xx_hal_pwr_ex.c ****           the maximum frequency. This is done through __HAL_PWR_MAINREGULATORMODE_CONFIG() 
  92:C:/Users/LC/STM32Cube/Repository/STM32Cube_FW_F4_V1.28.0/Drivers/STM32F4xx_HAL_Driver/Src\stm32f4xx_hal_pwr_ex.c ****           macro which configure VOS bit in PWR_CR register
  93:C:/Users/LC/STM32Cube/Repository/STM32Cube_FW_F4_V1.28.0/Drivers/STM32F4xx_HAL_Driver/Src\stm32f4xx_hal_pwr_ex.c ****           
  94:C:/Users/LC/STM32Cube/Repository/STM32Cube_FW_F4_V1.28.0/Drivers/STM32F4xx_HAL_Driver/Src\stm32f4xx_hal_pwr_ex.c ****         Refer to the product datasheets for more details.
  95:C:/Users/LC/STM32Cube/Repository/STM32Cube_FW_F4_V1.28.0/Drivers/STM32F4xx_HAL_Driver/Src\stm32f4xx_hal_pwr_ex.c **** 
  96:C:/Users/LC/STM32Cube/Repository/STM32Cube_FW_F4_V1.28.0/Drivers/STM32F4xx_HAL_Driver/Src\stm32f4xx_hal_pwr_ex.c ****     *** FLASH Power Down configuration ****
  97:C:/Users/LC/STM32Cube/Repository/STM32Cube_FW_F4_V1.28.0/Drivers/STM32F4xx_HAL_Driver/Src\stm32f4xx_hal_pwr_ex.c ****     =======================================
  98:C:/Users/LC/STM32Cube/Repository/STM32Cube_FW_F4_V1.28.0/Drivers/STM32F4xx_HAL_Driver/Src\stm32f4xx_hal_pwr_ex.c ****     [..] 
  99:C:/Users/LC/STM32Cube/Repository/STM32Cube_FW_F4_V1.28.0/Drivers/STM32F4xx_HAL_Driver/Src\stm32f4xx_hal_pwr_ex.c ****       (+) By setting the FPDS bit in the PWR_CR register by using the 
 100:C:/Users/LC/STM32Cube/Repository/STM32Cube_FW_F4_V1.28.0/Drivers/STM32F4xx_HAL_Driver/Src\stm32f4xx_hal_pwr_ex.c ****           HAL_PWREx_EnableFlashPowerDown() function, the Flash memory also enters power 
 101:C:/Users/LC/STM32Cube/Repository/STM32Cube_FW_F4_V1.28.0/Drivers/STM32F4xx_HAL_Driver/Src\stm32f4xx_hal_pwr_ex.c ****           down mode when the device enters Stop mode. When the Flash memory 
 102:C:/Users/LC/STM32Cube/Repository/STM32Cube_FW_F4_V1.28.0/Drivers/STM32F4xx_HAL_Driver/Src\stm32f4xx_hal_pwr_ex.c ****           is in power down mode, an additional startup delay is incurred when 
 103:C:/Users/LC/STM32Cube/Repository/STM32Cube_FW_F4_V1.28.0/Drivers/STM32F4xx_HAL_Driver/Src\stm32f4xx_hal_pwr_ex.c ****           waking up from Stop mode.
 104:C:/Users/LC/STM32Cube/Repository/STM32Cube_FW_F4_V1.28.0/Drivers/STM32F4xx_HAL_Driver/Src\stm32f4xx_hal_pwr_ex.c ****           
 105:C:/Users/LC/STM32Cube/Repository/STM32Cube_FW_F4_V1.28.0/Drivers/STM32F4xx_HAL_Driver/Src\stm32f4xx_hal_pwr_ex.c ****            (+) For STM32F42xxx/43xxx/446xx/469xx/479xx Devices, the scale can be modified only when
 106:C:/Users/LC/STM32Cube/Repository/STM32Cube_FW_F4_V1.28.0/Drivers/STM32F4xx_HAL_Driver/Src\stm32f4xx_hal_pwr_ex.c ****            is OFF and the HSI or HSE clock source is selected as system clock. 
 107:C:/Users/LC/STM32Cube/Repository/STM32Cube_FW_F4_V1.28.0/Drivers/STM32F4xx_HAL_Driver/Src\stm32f4xx_hal_pwr_ex.c ****            The new value programmed is active only when the PLL is ON.
 108:C:/Users/LC/STM32Cube/Repository/STM32Cube_FW_F4_V1.28.0/Drivers/STM32F4xx_HAL_Driver/Src\stm32f4xx_hal_pwr_ex.c ****            When the PLL is OFF, the voltage scale 3 is automatically selected. 
 109:C:/Users/LC/STM32Cube/Repository/STM32Cube_FW_F4_V1.28.0/Drivers/STM32F4xx_HAL_Driver/Src\stm32f4xx_hal_pwr_ex.c ****         Refer to the datasheets for more details.
 110:C:/Users/LC/STM32Cube/Repository/STM32Cube_FW_F4_V1.28.0/Drivers/STM32F4xx_HAL_Driver/Src\stm32f4xx_hal_pwr_ex.c **** 
 111:C:/Users/LC/STM32Cube/Repository/STM32Cube_FW_F4_V1.28.0/Drivers/STM32F4xx_HAL_Driver/Src\stm32f4xx_hal_pwr_ex.c ****     *** Over-Drive and Under-Drive configuration ****
 112:C:/Users/LC/STM32Cube/Repository/STM32Cube_FW_F4_V1.28.0/Drivers/STM32F4xx_HAL_Driver/Src\stm32f4xx_hal_pwr_ex.c ****     =================================================
 113:C:/Users/LC/STM32Cube/Repository/STM32Cube_FW_F4_V1.28.0/Drivers/STM32F4xx_HAL_Driver/Src\stm32f4xx_hal_pwr_ex.c ****     [..]         
 114:C:/Users/LC/STM32Cube/Repository/STM32Cube_FW_F4_V1.28.0/Drivers/STM32F4xx_HAL_Driver/Src\stm32f4xx_hal_pwr_ex.c ****        (+) For STM32F42xxx/43xxx/446xx/469xx/479xx Devices, in Run mode: the main regulator has
 115:C:/Users/LC/STM32Cube/Repository/STM32Cube_FW_F4_V1.28.0/Drivers/STM32F4xx_HAL_Driver/Src\stm32f4xx_hal_pwr_ex.c ****            2 operating modes available:
 116:C:/Users/LC/STM32Cube/Repository/STM32Cube_FW_F4_V1.28.0/Drivers/STM32F4xx_HAL_Driver/Src\stm32f4xx_hal_pwr_ex.c ****         (++) Normal mode: The CPU and core logic operate at maximum frequency at a given 
 117:C:/Users/LC/STM32Cube/Repository/STM32Cube_FW_F4_V1.28.0/Drivers/STM32F4xx_HAL_Driver/Src\stm32f4xx_hal_pwr_ex.c ****              voltage scaling (scale 1, scale 2 or scale 3)
 118:C:/Users/LC/STM32Cube/Repository/STM32Cube_FW_F4_V1.28.0/Drivers/STM32F4xx_HAL_Driver/Src\stm32f4xx_hal_pwr_ex.c ****         (++) Over-drive mode: This mode allows the CPU and the core logic to operate at a 
 119:C:/Users/LC/STM32Cube/Repository/STM32Cube_FW_F4_V1.28.0/Drivers/STM32F4xx_HAL_Driver/Src\stm32f4xx_hal_pwr_ex.c ****             higher frequency than the normal mode for a given voltage scaling (scale 1,  
 120:C:/Users/LC/STM32Cube/Repository/STM32Cube_FW_F4_V1.28.0/Drivers/STM32F4xx_HAL_Driver/Src\stm32f4xx_hal_pwr_ex.c ****             scale 2 or scale 3). This mode is enabled through HAL_PWREx_EnableOverDrive() function 
 121:C:/Users/LC/STM32Cube/Repository/STM32Cube_FW_F4_V1.28.0/Drivers/STM32F4xx_HAL_Driver/Src\stm32f4xx_hal_pwr_ex.c ****             disabled by HAL_PWREx_DisableOverDrive() function, to enter or exit from Over-drive mod
 122:C:/Users/LC/STM32Cube/Repository/STM32Cube_FW_F4_V1.28.0/Drivers/STM32F4xx_HAL_Driver/Src\stm32f4xx_hal_pwr_ex.c ****             the sequence described in Reference manual.
 123:C:/Users/LC/STM32Cube/Repository/STM32Cube_FW_F4_V1.28.0/Drivers/STM32F4xx_HAL_Driver/Src\stm32f4xx_hal_pwr_ex.c ****              
 124:C:/Users/LC/STM32Cube/Repository/STM32Cube_FW_F4_V1.28.0/Drivers/STM32F4xx_HAL_Driver/Src\stm32f4xx_hal_pwr_ex.c ****        (+) For STM32F42xxx/43xxx/446xx/469xx/479xx Devices, in Stop mode: the main regulator or low
 125:C:/Users/LC/STM32Cube/Repository/STM32Cube_FW_F4_V1.28.0/Drivers/STM32F4xx_HAL_Driver/Src\stm32f4xx_hal_pwr_ex.c ****            supplies a low power voltage to the 1.2V domain, thus preserving the content of register
 126:C:/Users/LC/STM32Cube/Repository/STM32Cube_FW_F4_V1.28.0/Drivers/STM32F4xx_HAL_Driver/Src\stm32f4xx_hal_pwr_ex.c ****            and internal SRAM. 2 operating modes are available:
 127:C:/Users/LC/STM32Cube/Repository/STM32Cube_FW_F4_V1.28.0/Drivers/STM32F4xx_HAL_Driver/Src\stm32f4xx_hal_pwr_ex.c ****          (++) Normal mode: the 1.2V domain is preserved in nominal leakage mode. This mode is only 
 128:C:/Users/LC/STM32Cube/Repository/STM32Cube_FW_F4_V1.28.0/Drivers/STM32F4xx_HAL_Driver/Src\stm32f4xx_hal_pwr_ex.c ****               available when the main regulator or the low power regulator is used in Scale 3 or 
 129:C:/Users/LC/STM32Cube/Repository/STM32Cube_FW_F4_V1.28.0/Drivers/STM32F4xx_HAL_Driver/Src\stm32f4xx_hal_pwr_ex.c ****               low voltage mode.
 130:C:/Users/LC/STM32Cube/Repository/STM32Cube_FW_F4_V1.28.0/Drivers/STM32F4xx_HAL_Driver/Src\stm32f4xx_hal_pwr_ex.c ****          (++) Under-drive mode: the 1.2V domain is preserved in reduced leakage mode. This mode is 
 131:C:/Users/LC/STM32Cube/Repository/STM32Cube_FW_F4_V1.28.0/Drivers/STM32F4xx_HAL_Driver/Src\stm32f4xx_hal_pwr_ex.c ****               available when the main regulator or the low power regulator is in low voltage mode.
 132:C:/Users/LC/STM32Cube/Repository/STM32Cube_FW_F4_V1.28.0/Drivers/STM32F4xx_HAL_Driver/Src\stm32f4xx_hal_pwr_ex.c **** 
 133:C:/Users/LC/STM32Cube/Repository/STM32Cube_FW_F4_V1.28.0/Drivers/STM32F4xx_HAL_Driver/Src\stm32f4xx_hal_pwr_ex.c **** @endverbatim
 134:C:/Users/LC/STM32Cube/Repository/STM32Cube_FW_F4_V1.28.0/Drivers/STM32F4xx_HAL_Driver/Src\stm32f4xx_hal_pwr_ex.c ****   * @{
 135:C:/Users/LC/STM32Cube/Repository/STM32Cube_FW_F4_V1.28.0/Drivers/STM32F4xx_HAL_Driver/Src\stm32f4xx_hal_pwr_ex.c ****   */
 136:C:/Users/LC/STM32Cube/Repository/STM32Cube_FW_F4_V1.28.0/Drivers/STM32F4xx_HAL_Driver/Src\stm32f4xx_hal_pwr_ex.c **** 
 137:C:/Users/LC/STM32Cube/Repository/STM32Cube_FW_F4_V1.28.0/Drivers/STM32F4xx_HAL_Driver/Src\stm32f4xx_hal_pwr_ex.c **** /**
 138:C:/Users/LC/STM32Cube/Repository/STM32Cube_FW_F4_V1.28.0/Drivers/STM32F4xx_HAL_Driver/Src\stm32f4xx_hal_pwr_ex.c ****   * @brief Enables the Backup Regulator.
 139:C:/Users/LC/STM32Cube/Repository/STM32Cube_FW_F4_V1.28.0/Drivers/STM32F4xx_HAL_Driver/Src\stm32f4xx_hal_pwr_ex.c ****   * @retval HAL status
 140:C:/Users/LC/STM32Cube/Repository/STM32Cube_FW_F4_V1.28.0/Drivers/STM32F4xx_HAL_Driver/Src\stm32f4xx_hal_pwr_ex.c ****   */
 141:C:/Users/LC/STM32Cube/Repository/STM32Cube_FW_F4_V1.28.0/Drivers/STM32F4xx_HAL_Driver/Src\stm32f4xx_hal_pwr_ex.c **** HAL_StatusTypeDef HAL_PWREx_EnableBkUpReg(void)
 142:C:/Users/LC/STM32Cube/Repository/STM32Cube_FW_F4_V1.28.0/Drivers/STM32F4xx_HAL_Driver/Src\stm32f4xx_hal_pwr_ex.c **** {
  29              		.loc 1 142 1 view -0
  30              		.cfi_startproc
ARM GAS  C:\Users\LC\AppData\Local\Temp\cctO9Ld3.s 			page 4


  31              		@ args = 0, pretend = 0, frame = 0
  32              		@ frame_needed = 0, uses_anonymous_args = 0
  33 0000 10B5     		push	{r4, lr}
  34              	.LCFI0:
  35              		.cfi_def_cfa_offset 8
  36              		.cfi_offset 4, -8
  37              		.cfi_offset 14, -4
 143:C:/Users/LC/STM32Cube/Repository/STM32Cube_FW_F4_V1.28.0/Drivers/STM32F4xx_HAL_Driver/Src\stm32f4xx_hal_pwr_ex.c ****   uint32_t tickstart = 0U;
  38              		.loc 1 143 3 view .LVU1
  39              	.LVL0:
 144:C:/Users/LC/STM32Cube/Repository/STM32Cube_FW_F4_V1.28.0/Drivers/STM32F4xx_HAL_Driver/Src\stm32f4xx_hal_pwr_ex.c **** 
 145:C:/Users/LC/STM32Cube/Repository/STM32Cube_FW_F4_V1.28.0/Drivers/STM32F4xx_HAL_Driver/Src\stm32f4xx_hal_pwr_ex.c ****   *(__IO uint32_t *) CSR_BRE_BB = (uint32_t)ENABLE;
  40              		.loc 1 145 3 view .LVU2
  41              		.loc 1 145 33 is_stmt 0 view .LVU3
  42 0002 0B4B     		ldr	r3, .L8
  43 0004 0122     		movs	r2, #1
  44 0006 C3F8A420 		str	r2, [r3, #164]
 146:C:/Users/LC/STM32Cube/Repository/STM32Cube_FW_F4_V1.28.0/Drivers/STM32F4xx_HAL_Driver/Src\stm32f4xx_hal_pwr_ex.c **** 
 147:C:/Users/LC/STM32Cube/Repository/STM32Cube_FW_F4_V1.28.0/Drivers/STM32F4xx_HAL_Driver/Src\stm32f4xx_hal_pwr_ex.c ****   /* Get tick */
 148:C:/Users/LC/STM32Cube/Repository/STM32Cube_FW_F4_V1.28.0/Drivers/STM32F4xx_HAL_Driver/Src\stm32f4xx_hal_pwr_ex.c ****   tickstart = HAL_GetTick();
  45              		.loc 1 148 3 is_stmt 1 view .LVU4
  46              		.loc 1 148 15 is_stmt 0 view .LVU5
  47 000a FFF7FEFF 		bl	HAL_GetTick
  48              	.LVL1:
  49 000e 0446     		mov	r4, r0
  50              	.LVL2:
 149:C:/Users/LC/STM32Cube/Repository/STM32Cube_FW_F4_V1.28.0/Drivers/STM32F4xx_HAL_Driver/Src\stm32f4xx_hal_pwr_ex.c **** 
 150:C:/Users/LC/STM32Cube/Repository/STM32Cube_FW_F4_V1.28.0/Drivers/STM32F4xx_HAL_Driver/Src\stm32f4xx_hal_pwr_ex.c ****   /* Wait till Backup regulator ready flag is set */  
 151:C:/Users/LC/STM32Cube/Repository/STM32Cube_FW_F4_V1.28.0/Drivers/STM32F4xx_HAL_Driver/Src\stm32f4xx_hal_pwr_ex.c ****   while(__HAL_PWR_GET_FLAG(PWR_FLAG_BRR) == RESET)
  51              		.loc 1 151 3 is_stmt 1 view .LVU6
  52              	.L2:
  53              		.loc 1 151 8 view .LVU7
  54              		.loc 1 151 9 is_stmt 0 view .LVU8
  55 0010 084B     		ldr	r3, .L8+4
  56 0012 5B68     		ldr	r3, [r3, #4]
  57              		.loc 1 151 8 view .LVU9
  58 0014 13F0080F 		tst	r3, #8
  59 0018 07D1     		bne	.L7
 152:C:/Users/LC/STM32Cube/Repository/STM32Cube_FW_F4_V1.28.0/Drivers/STM32F4xx_HAL_Driver/Src\stm32f4xx_hal_pwr_ex.c ****   {
 153:C:/Users/LC/STM32Cube/Repository/STM32Cube_FW_F4_V1.28.0/Drivers/STM32F4xx_HAL_Driver/Src\stm32f4xx_hal_pwr_ex.c ****     if((HAL_GetTick() - tickstart ) > PWR_BKPREG_TIMEOUT_VALUE)
  60              		.loc 1 153 5 is_stmt 1 view .LVU10
  61              		.loc 1 153 9 is_stmt 0 view .LVU11
  62 001a FFF7FEFF 		bl	HAL_GetTick
  63              	.LVL3:
  64              		.loc 1 153 23 view .LVU12
  65 001e 001B     		subs	r0, r0, r4
  66              		.loc 1 153 7 view .LVU13
  67 0020 B0F57A7F 		cmp	r0, #1000
  68 0024 F4D9     		bls	.L2
 154:C:/Users/LC/STM32Cube/Repository/STM32Cube_FW_F4_V1.28.0/Drivers/STM32F4xx_HAL_Driver/Src\stm32f4xx_hal_pwr_ex.c ****     {
 155:C:/Users/LC/STM32Cube/Repository/STM32Cube_FW_F4_V1.28.0/Drivers/STM32F4xx_HAL_Driver/Src\stm32f4xx_hal_pwr_ex.c ****       return HAL_TIMEOUT;
  69              		.loc 1 155 14 view .LVU14
  70 0026 0320     		movs	r0, #3
  71 0028 00E0     		b	.L3
  72              	.L7:
 156:C:/Users/LC/STM32Cube/Repository/STM32Cube_FW_F4_V1.28.0/Drivers/STM32F4xx_HAL_Driver/Src\stm32f4xx_hal_pwr_ex.c ****     } 
 157:C:/Users/LC/STM32Cube/Repository/STM32Cube_FW_F4_V1.28.0/Drivers/STM32F4xx_HAL_Driver/Src\stm32f4xx_hal_pwr_ex.c ****   }
ARM GAS  C:\Users\LC\AppData\Local\Temp\cctO9Ld3.s 			page 5


 158:C:/Users/LC/STM32Cube/Repository/STM32Cube_FW_F4_V1.28.0/Drivers/STM32F4xx_HAL_Driver/Src\stm32f4xx_hal_pwr_ex.c ****   return HAL_OK;
  73              		.loc 1 158 10 view .LVU15
  74 002a 0020     		movs	r0, #0
  75              	.L3:
 159:C:/Users/LC/STM32Cube/Repository/STM32Cube_FW_F4_V1.28.0/Drivers/STM32F4xx_HAL_Driver/Src\stm32f4xx_hal_pwr_ex.c **** }
  76              		.loc 1 159 1 view .LVU16
  77 002c 10BD     		pop	{r4, pc}
  78              	.LVL4:
  79              	.L9:
  80              		.loc 1 159 1 view .LVU17
  81 002e 00BF     		.align	2
  82              	.L8:
  83 0030 00000E42 		.word	1108213760
  84 0034 00700040 		.word	1073770496
  85              		.cfi_endproc
  86              	.LFE134:
  88              		.section	.text.HAL_PWREx_DisableBkUpReg,"ax",%progbits
  89              		.align	1
  90              		.global	HAL_PWREx_DisableBkUpReg
  91              		.syntax unified
  92              		.thumb
  93              		.thumb_func
  95              	HAL_PWREx_DisableBkUpReg:
  96              	.LFB135:
 160:C:/Users/LC/STM32Cube/Repository/STM32Cube_FW_F4_V1.28.0/Drivers/STM32F4xx_HAL_Driver/Src\stm32f4xx_hal_pwr_ex.c **** 
 161:C:/Users/LC/STM32Cube/Repository/STM32Cube_FW_F4_V1.28.0/Drivers/STM32F4xx_HAL_Driver/Src\stm32f4xx_hal_pwr_ex.c **** /**
 162:C:/Users/LC/STM32Cube/Repository/STM32Cube_FW_F4_V1.28.0/Drivers/STM32F4xx_HAL_Driver/Src\stm32f4xx_hal_pwr_ex.c ****   * @brief Disables the Backup Regulator.
 163:C:/Users/LC/STM32Cube/Repository/STM32Cube_FW_F4_V1.28.0/Drivers/STM32F4xx_HAL_Driver/Src\stm32f4xx_hal_pwr_ex.c ****   * @retval HAL status
 164:C:/Users/LC/STM32Cube/Repository/STM32Cube_FW_F4_V1.28.0/Drivers/STM32F4xx_HAL_Driver/Src\stm32f4xx_hal_pwr_ex.c ****   */
 165:C:/Users/LC/STM32Cube/Repository/STM32Cube_FW_F4_V1.28.0/Drivers/STM32F4xx_HAL_Driver/Src\stm32f4xx_hal_pwr_ex.c **** HAL_StatusTypeDef HAL_PWREx_DisableBkUpReg(void)
 166:C:/Users/LC/STM32Cube/Repository/STM32Cube_FW_F4_V1.28.0/Drivers/STM32F4xx_HAL_Driver/Src\stm32f4xx_hal_pwr_ex.c **** {
  97              		.loc 1 166 1 is_stmt 1 view -0
  98              		.cfi_startproc
  99              		@ args = 0, pretend = 0, frame = 0
 100              		@ frame_needed = 0, uses_anonymous_args = 0
 101 0000 10B5     		push	{r4, lr}
 102              	.LCFI1:
 103              		.cfi_def_cfa_offset 8
 104              		.cfi_offset 4, -8
 105              		.cfi_offset 14, -4
 167:C:/Users/LC/STM32Cube/Repository/STM32Cube_FW_F4_V1.28.0/Drivers/STM32F4xx_HAL_Driver/Src\stm32f4xx_hal_pwr_ex.c ****   uint32_t tickstart = 0U;
 106              		.loc 1 167 3 view .LVU19
 107              	.LVL5:
 168:C:/Users/LC/STM32Cube/Repository/STM32Cube_FW_F4_V1.28.0/Drivers/STM32F4xx_HAL_Driver/Src\stm32f4xx_hal_pwr_ex.c **** 
 169:C:/Users/LC/STM32Cube/Repository/STM32Cube_FW_F4_V1.28.0/Drivers/STM32F4xx_HAL_Driver/Src\stm32f4xx_hal_pwr_ex.c ****   *(__IO uint32_t *) CSR_BRE_BB = (uint32_t)DISABLE;
 108              		.loc 1 169 3 view .LVU20
 109              		.loc 1 169 33 is_stmt 0 view .LVU21
 110 0002 0B4B     		ldr	r3, .L17
 111 0004 0022     		movs	r2, #0
 112 0006 C3F8A420 		str	r2, [r3, #164]
 170:C:/Users/LC/STM32Cube/Repository/STM32Cube_FW_F4_V1.28.0/Drivers/STM32F4xx_HAL_Driver/Src\stm32f4xx_hal_pwr_ex.c **** 
 171:C:/Users/LC/STM32Cube/Repository/STM32Cube_FW_F4_V1.28.0/Drivers/STM32F4xx_HAL_Driver/Src\stm32f4xx_hal_pwr_ex.c ****   /* Get tick */
 172:C:/Users/LC/STM32Cube/Repository/STM32Cube_FW_F4_V1.28.0/Drivers/STM32F4xx_HAL_Driver/Src\stm32f4xx_hal_pwr_ex.c ****   tickstart = HAL_GetTick();
 113              		.loc 1 172 3 is_stmt 1 view .LVU22
 114              		.loc 1 172 15 is_stmt 0 view .LVU23
 115 000a FFF7FEFF 		bl	HAL_GetTick
 116              	.LVL6:
ARM GAS  C:\Users\LC\AppData\Local\Temp\cctO9Ld3.s 			page 6


 117 000e 0446     		mov	r4, r0
 118              	.LVL7:
 173:C:/Users/LC/STM32Cube/Repository/STM32Cube_FW_F4_V1.28.0/Drivers/STM32F4xx_HAL_Driver/Src\stm32f4xx_hal_pwr_ex.c **** 
 174:C:/Users/LC/STM32Cube/Repository/STM32Cube_FW_F4_V1.28.0/Drivers/STM32F4xx_HAL_Driver/Src\stm32f4xx_hal_pwr_ex.c ****   /* Wait till Backup regulator ready flag is set */  
 175:C:/Users/LC/STM32Cube/Repository/STM32Cube_FW_F4_V1.28.0/Drivers/STM32F4xx_HAL_Driver/Src\stm32f4xx_hal_pwr_ex.c ****   while(__HAL_PWR_GET_FLAG(PWR_FLAG_BRR) != RESET)
 119              		.loc 1 175 3 is_stmt 1 view .LVU24
 120              	.L11:
 121              		.loc 1 175 8 view .LVU25
 122              		.loc 1 175 9 is_stmt 0 view .LVU26
 123 0010 084B     		ldr	r3, .L17+4
 124 0012 5B68     		ldr	r3, [r3, #4]
 125              		.loc 1 175 8 view .LVU27
 126 0014 13F0080F 		tst	r3, #8
 127 0018 07D0     		beq	.L16
 176:C:/Users/LC/STM32Cube/Repository/STM32Cube_FW_F4_V1.28.0/Drivers/STM32F4xx_HAL_Driver/Src\stm32f4xx_hal_pwr_ex.c ****   {
 177:C:/Users/LC/STM32Cube/Repository/STM32Cube_FW_F4_V1.28.0/Drivers/STM32F4xx_HAL_Driver/Src\stm32f4xx_hal_pwr_ex.c ****     if((HAL_GetTick() - tickstart ) > PWR_BKPREG_TIMEOUT_VALUE)
 128              		.loc 1 177 5 is_stmt 1 view .LVU28
 129              		.loc 1 177 9 is_stmt 0 view .LVU29
 130 001a FFF7FEFF 		bl	HAL_GetTick
 131              	.LVL8:
 132              		.loc 1 177 23 view .LVU30
 133 001e 001B     		subs	r0, r0, r4
 134              		.loc 1 177 7 view .LVU31
 135 0020 B0F57A7F 		cmp	r0, #1000
 136 0024 F4D9     		bls	.L11
 178:C:/Users/LC/STM32Cube/Repository/STM32Cube_FW_F4_V1.28.0/Drivers/STM32F4xx_HAL_Driver/Src\stm32f4xx_hal_pwr_ex.c ****     {
 179:C:/Users/LC/STM32Cube/Repository/STM32Cube_FW_F4_V1.28.0/Drivers/STM32F4xx_HAL_Driver/Src\stm32f4xx_hal_pwr_ex.c ****       return HAL_TIMEOUT;
 137              		.loc 1 179 14 view .LVU32
 138 0026 0320     		movs	r0, #3
 139 0028 00E0     		b	.L12
 140              	.L16:
 180:C:/Users/LC/STM32Cube/Repository/STM32Cube_FW_F4_V1.28.0/Drivers/STM32F4xx_HAL_Driver/Src\stm32f4xx_hal_pwr_ex.c ****     } 
 181:C:/Users/LC/STM32Cube/Repository/STM32Cube_FW_F4_V1.28.0/Drivers/STM32F4xx_HAL_Driver/Src\stm32f4xx_hal_pwr_ex.c ****   }
 182:C:/Users/LC/STM32Cube/Repository/STM32Cube_FW_F4_V1.28.0/Drivers/STM32F4xx_HAL_Driver/Src\stm32f4xx_hal_pwr_ex.c ****   return HAL_OK;
 141              		.loc 1 182 10 view .LVU33
 142 002a 0020     		movs	r0, #0
 143              	.L12:
 183:C:/Users/LC/STM32Cube/Repository/STM32Cube_FW_F4_V1.28.0/Drivers/STM32F4xx_HAL_Driver/Src\stm32f4xx_hal_pwr_ex.c **** }
 144              		.loc 1 183 1 view .LVU34
 145 002c 10BD     		pop	{r4, pc}
 146              	.LVL9:
 147              	.L18:
 148              		.loc 1 183 1 view .LVU35
 149 002e 00BF     		.align	2
 150              	.L17:
 151 0030 00000E42 		.word	1108213760
 152 0034 00700040 		.word	1073770496
 153              		.cfi_endproc
 154              	.LFE135:
 156              		.section	.text.HAL_PWREx_EnableFlashPowerDown,"ax",%progbits
 157              		.align	1
 158              		.global	HAL_PWREx_EnableFlashPowerDown
 159              		.syntax unified
 160              		.thumb
 161              		.thumb_func
 163              	HAL_PWREx_EnableFlashPowerDown:
 164              	.LFB136:
ARM GAS  C:\Users\LC\AppData\Local\Temp\cctO9Ld3.s 			page 7


 184:C:/Users/LC/STM32Cube/Repository/STM32Cube_FW_F4_V1.28.0/Drivers/STM32F4xx_HAL_Driver/Src\stm32f4xx_hal_pwr_ex.c **** 
 185:C:/Users/LC/STM32Cube/Repository/STM32Cube_FW_F4_V1.28.0/Drivers/STM32F4xx_HAL_Driver/Src\stm32f4xx_hal_pwr_ex.c **** /**
 186:C:/Users/LC/STM32Cube/Repository/STM32Cube_FW_F4_V1.28.0/Drivers/STM32F4xx_HAL_Driver/Src\stm32f4xx_hal_pwr_ex.c ****   * @brief Enables the Flash Power Down in Stop mode.
 187:C:/Users/LC/STM32Cube/Repository/STM32Cube_FW_F4_V1.28.0/Drivers/STM32F4xx_HAL_Driver/Src\stm32f4xx_hal_pwr_ex.c ****   * @retval None
 188:C:/Users/LC/STM32Cube/Repository/STM32Cube_FW_F4_V1.28.0/Drivers/STM32F4xx_HAL_Driver/Src\stm32f4xx_hal_pwr_ex.c ****   */
 189:C:/Users/LC/STM32Cube/Repository/STM32Cube_FW_F4_V1.28.0/Drivers/STM32F4xx_HAL_Driver/Src\stm32f4xx_hal_pwr_ex.c **** void HAL_PWREx_EnableFlashPowerDown(void)
 190:C:/Users/LC/STM32Cube/Repository/STM32Cube_FW_F4_V1.28.0/Drivers/STM32F4xx_HAL_Driver/Src\stm32f4xx_hal_pwr_ex.c **** {
 165              		.loc 1 190 1 is_stmt 1 view -0
 166              		.cfi_startproc
 167              		@ args = 0, pretend = 0, frame = 0
 168              		@ frame_needed = 0, uses_anonymous_args = 0
 169              		@ link register save eliminated.
 191:C:/Users/LC/STM32Cube/Repository/STM32Cube_FW_F4_V1.28.0/Drivers/STM32F4xx_HAL_Driver/Src\stm32f4xx_hal_pwr_ex.c ****   *(__IO uint32_t *) CR_FPDS_BB = (uint32_t)ENABLE;
 170              		.loc 1 191 3 view .LVU37
 171              		.loc 1 191 33 is_stmt 0 view .LVU38
 172 0000 014B     		ldr	r3, .L20
 173 0002 0122     		movs	r2, #1
 174 0004 5A62     		str	r2, [r3, #36]
 192:C:/Users/LC/STM32Cube/Repository/STM32Cube_FW_F4_V1.28.0/Drivers/STM32F4xx_HAL_Driver/Src\stm32f4xx_hal_pwr_ex.c **** }
 175              		.loc 1 192 1 view .LVU39
 176 0006 7047     		bx	lr
 177              	.L21:
 178              		.align	2
 179              	.L20:
 180 0008 00000E42 		.word	1108213760
 181              		.cfi_endproc
 182              	.LFE136:
 184              		.section	.text.HAL_PWREx_DisableFlashPowerDown,"ax",%progbits
 185              		.align	1
 186              		.global	HAL_PWREx_DisableFlashPowerDown
 187              		.syntax unified
 188              		.thumb
 189              		.thumb_func
 191              	HAL_PWREx_DisableFlashPowerDown:
 192              	.LFB137:
 193:C:/Users/LC/STM32Cube/Repository/STM32Cube_FW_F4_V1.28.0/Drivers/STM32F4xx_HAL_Driver/Src\stm32f4xx_hal_pwr_ex.c **** 
 194:C:/Users/LC/STM32Cube/Repository/STM32Cube_FW_F4_V1.28.0/Drivers/STM32F4xx_HAL_Driver/Src\stm32f4xx_hal_pwr_ex.c **** /**
 195:C:/Users/LC/STM32Cube/Repository/STM32Cube_FW_F4_V1.28.0/Drivers/STM32F4xx_HAL_Driver/Src\stm32f4xx_hal_pwr_ex.c ****   * @brief Disables the Flash Power Down in Stop mode.
 196:C:/Users/LC/STM32Cube/Repository/STM32Cube_FW_F4_V1.28.0/Drivers/STM32F4xx_HAL_Driver/Src\stm32f4xx_hal_pwr_ex.c ****   * @retval None
 197:C:/Users/LC/STM32Cube/Repository/STM32Cube_FW_F4_V1.28.0/Drivers/STM32F4xx_HAL_Driver/Src\stm32f4xx_hal_pwr_ex.c ****   */
 198:C:/Users/LC/STM32Cube/Repository/STM32Cube_FW_F4_V1.28.0/Drivers/STM32F4xx_HAL_Driver/Src\stm32f4xx_hal_pwr_ex.c **** void HAL_PWREx_DisableFlashPowerDown(void)
 199:C:/Users/LC/STM32Cube/Repository/STM32Cube_FW_F4_V1.28.0/Drivers/STM32F4xx_HAL_Driver/Src\stm32f4xx_hal_pwr_ex.c **** {
 193              		.loc 1 199 1 is_stmt 1 view -0
 194              		.cfi_startproc
 195              		@ args = 0, pretend = 0, frame = 0
 196              		@ frame_needed = 0, uses_anonymous_args = 0
 197              		@ link register save eliminated.
 200:C:/Users/LC/STM32Cube/Repository/STM32Cube_FW_F4_V1.28.0/Drivers/STM32F4xx_HAL_Driver/Src\stm32f4xx_hal_pwr_ex.c ****   *(__IO uint32_t *) CR_FPDS_BB = (uint32_t)DISABLE;
 198              		.loc 1 200 3 view .LVU41
 199              		.loc 1 200 33 is_stmt 0 view .LVU42
 200 0000 014B     		ldr	r3, .L23
 201 0002 0022     		movs	r2, #0
 202 0004 5A62     		str	r2, [r3, #36]
 201:C:/Users/LC/STM32Cube/Repository/STM32Cube_FW_F4_V1.28.0/Drivers/STM32F4xx_HAL_Driver/Src\stm32f4xx_hal_pwr_ex.c **** }
 203              		.loc 1 201 1 view .LVU43
 204 0006 7047     		bx	lr
 205              	.L24:
ARM GAS  C:\Users\LC\AppData\Local\Temp\cctO9Ld3.s 			page 8


 206              		.align	2
 207              	.L23:
 208 0008 00000E42 		.word	1108213760
 209              		.cfi_endproc
 210              	.LFE137:
 212              		.section	.text.HAL_PWREx_GetVoltageRange,"ax",%progbits
 213              		.align	1
 214              		.global	HAL_PWREx_GetVoltageRange
 215              		.syntax unified
 216              		.thumb
 217              		.thumb_func
 219              	HAL_PWREx_GetVoltageRange:
 220              	.LFB138:
 202:C:/Users/LC/STM32Cube/Repository/STM32Cube_FW_F4_V1.28.0/Drivers/STM32F4xx_HAL_Driver/Src\stm32f4xx_hal_pwr_ex.c **** 
 203:C:/Users/LC/STM32Cube/Repository/STM32Cube_FW_F4_V1.28.0/Drivers/STM32F4xx_HAL_Driver/Src\stm32f4xx_hal_pwr_ex.c **** /**
 204:C:/Users/LC/STM32Cube/Repository/STM32Cube_FW_F4_V1.28.0/Drivers/STM32F4xx_HAL_Driver/Src\stm32f4xx_hal_pwr_ex.c ****   * @brief Return Voltage Scaling Range.
 205:C:/Users/LC/STM32Cube/Repository/STM32Cube_FW_F4_V1.28.0/Drivers/STM32F4xx_HAL_Driver/Src\stm32f4xx_hal_pwr_ex.c ****   * @retval The configured scale for the regulator voltage(VOS bit field).
 206:C:/Users/LC/STM32Cube/Repository/STM32Cube_FW_F4_V1.28.0/Drivers/STM32F4xx_HAL_Driver/Src\stm32f4xx_hal_pwr_ex.c ****   *         The returned value can be one of the following:
 207:C:/Users/LC/STM32Cube/Repository/STM32Cube_FW_F4_V1.28.0/Drivers/STM32F4xx_HAL_Driver/Src\stm32f4xx_hal_pwr_ex.c ****   *            - @arg PWR_REGULATOR_VOLTAGE_SCALE1: Regulator voltage output Scale 1 mode
 208:C:/Users/LC/STM32Cube/Repository/STM32Cube_FW_F4_V1.28.0/Drivers/STM32F4xx_HAL_Driver/Src\stm32f4xx_hal_pwr_ex.c ****   *            - @arg PWR_REGULATOR_VOLTAGE_SCALE2: Regulator voltage output Scale 2 mode
 209:C:/Users/LC/STM32Cube/Repository/STM32Cube_FW_F4_V1.28.0/Drivers/STM32F4xx_HAL_Driver/Src\stm32f4xx_hal_pwr_ex.c ****   *            - @arg PWR_REGULATOR_VOLTAGE_SCALE3: Regulator voltage output Scale 3 mode
 210:C:/Users/LC/STM32Cube/Repository/STM32Cube_FW_F4_V1.28.0/Drivers/STM32F4xx_HAL_Driver/Src\stm32f4xx_hal_pwr_ex.c ****   */  
 211:C:/Users/LC/STM32Cube/Repository/STM32Cube_FW_F4_V1.28.0/Drivers/STM32F4xx_HAL_Driver/Src\stm32f4xx_hal_pwr_ex.c **** uint32_t HAL_PWREx_GetVoltageRange(void)
 212:C:/Users/LC/STM32Cube/Repository/STM32Cube_FW_F4_V1.28.0/Drivers/STM32F4xx_HAL_Driver/Src\stm32f4xx_hal_pwr_ex.c **** {
 221              		.loc 1 212 1 is_stmt 1 view -0
 222              		.cfi_startproc
 223              		@ args = 0, pretend = 0, frame = 0
 224              		@ frame_needed = 0, uses_anonymous_args = 0
 225              		@ link register save eliminated.
 213:C:/Users/LC/STM32Cube/Repository/STM32Cube_FW_F4_V1.28.0/Drivers/STM32F4xx_HAL_Driver/Src\stm32f4xx_hal_pwr_ex.c ****   return (PWR->CR & PWR_CR_VOS);
 226              		.loc 1 213 3 view .LVU45
 227              		.loc 1 213 14 is_stmt 0 view .LVU46
 228 0000 024B     		ldr	r3, .L26
 229 0002 1868     		ldr	r0, [r3]
 214:C:/Users/LC/STM32Cube/Repository/STM32Cube_FW_F4_V1.28.0/Drivers/STM32F4xx_HAL_Driver/Src\stm32f4xx_hal_pwr_ex.c **** }
 230              		.loc 1 214 1 view .LVU47
 231 0004 00F44040 		and	r0, r0, #49152
 232 0008 7047     		bx	lr
 233              	.L27:
 234 000a 00BF     		.align	2
 235              	.L26:
 236 000c 00700040 		.word	1073770496
 237              		.cfi_endproc
 238              	.LFE138:
 240              		.section	.text.HAL_PWREx_ControlVoltageScaling,"ax",%progbits
 241              		.align	1
 242              		.global	HAL_PWREx_ControlVoltageScaling
 243              		.syntax unified
 244              		.thumb
 245              		.thumb_func
 247              	HAL_PWREx_ControlVoltageScaling:
 248              	.LVL10:
 249              	.LFB139:
 215:C:/Users/LC/STM32Cube/Repository/STM32Cube_FW_F4_V1.28.0/Drivers/STM32F4xx_HAL_Driver/Src\stm32f4xx_hal_pwr_ex.c **** 
 216:C:/Users/LC/STM32Cube/Repository/STM32Cube_FW_F4_V1.28.0/Drivers/STM32F4xx_HAL_Driver/Src\stm32f4xx_hal_pwr_ex.c **** #if defined(STM32F405xx) || defined(STM32F415xx) || defined(STM32F407xx) || defined(STM32F417xx)
 217:C:/Users/LC/STM32Cube/Repository/STM32Cube_FW_F4_V1.28.0/Drivers/STM32F4xx_HAL_Driver/Src\stm32f4xx_hal_pwr_ex.c **** /**
 218:C:/Users/LC/STM32Cube/Repository/STM32Cube_FW_F4_V1.28.0/Drivers/STM32F4xx_HAL_Driver/Src\stm32f4xx_hal_pwr_ex.c ****   * @brief Configures the main internal regulator output voltage.
ARM GAS  C:\Users\LC\AppData\Local\Temp\cctO9Ld3.s 			page 9


 219:C:/Users/LC/STM32Cube/Repository/STM32Cube_FW_F4_V1.28.0/Drivers/STM32F4xx_HAL_Driver/Src\stm32f4xx_hal_pwr_ex.c ****   * @param  VoltageScaling specifies the regulator output voltage to achieve
 220:C:/Users/LC/STM32Cube/Repository/STM32Cube_FW_F4_V1.28.0/Drivers/STM32F4xx_HAL_Driver/Src\stm32f4xx_hal_pwr_ex.c ****   *         a tradeoff between performance and power consumption.
 221:C:/Users/LC/STM32Cube/Repository/STM32Cube_FW_F4_V1.28.0/Drivers/STM32F4xx_HAL_Driver/Src\stm32f4xx_hal_pwr_ex.c ****   *          This parameter can be one of the following values:
 222:C:/Users/LC/STM32Cube/Repository/STM32Cube_FW_F4_V1.28.0/Drivers/STM32F4xx_HAL_Driver/Src\stm32f4xx_hal_pwr_ex.c ****   *            @arg PWR_REGULATOR_VOLTAGE_SCALE1: Regulator voltage output range 1 mode,
 223:C:/Users/LC/STM32Cube/Repository/STM32Cube_FW_F4_V1.28.0/Drivers/STM32F4xx_HAL_Driver/Src\stm32f4xx_hal_pwr_ex.c ****   *                                               the maximum value of fHCLK = 168 MHz.
 224:C:/Users/LC/STM32Cube/Repository/STM32Cube_FW_F4_V1.28.0/Drivers/STM32F4xx_HAL_Driver/Src\stm32f4xx_hal_pwr_ex.c ****   *            @arg PWR_REGULATOR_VOLTAGE_SCALE2: Regulator voltage output range 2 mode,
 225:C:/Users/LC/STM32Cube/Repository/STM32Cube_FW_F4_V1.28.0/Drivers/STM32F4xx_HAL_Driver/Src\stm32f4xx_hal_pwr_ex.c ****   *                                               the maximum value of fHCLK = 144 MHz.
 226:C:/Users/LC/STM32Cube/Repository/STM32Cube_FW_F4_V1.28.0/Drivers/STM32F4xx_HAL_Driver/Src\stm32f4xx_hal_pwr_ex.c ****   * @note  When moving from Range 1 to Range 2, the system frequency must be decreased to
 227:C:/Users/LC/STM32Cube/Repository/STM32Cube_FW_F4_V1.28.0/Drivers/STM32F4xx_HAL_Driver/Src\stm32f4xx_hal_pwr_ex.c ****   *        a value below 144 MHz before calling HAL_PWREx_ConfigVoltageScaling() API.
 228:C:/Users/LC/STM32Cube/Repository/STM32Cube_FW_F4_V1.28.0/Drivers/STM32F4xx_HAL_Driver/Src\stm32f4xx_hal_pwr_ex.c ****   *        When moving from Range 2 to Range 1, the system frequency can be increased to
 229:C:/Users/LC/STM32Cube/Repository/STM32Cube_FW_F4_V1.28.0/Drivers/STM32F4xx_HAL_Driver/Src\stm32f4xx_hal_pwr_ex.c ****   *        a value up to 168 MHz after calling HAL_PWREx_ConfigVoltageScaling() API.
 230:C:/Users/LC/STM32Cube/Repository/STM32Cube_FW_F4_V1.28.0/Drivers/STM32F4xx_HAL_Driver/Src\stm32f4xx_hal_pwr_ex.c ****   * @retval HAL Status
 231:C:/Users/LC/STM32Cube/Repository/STM32Cube_FW_F4_V1.28.0/Drivers/STM32F4xx_HAL_Driver/Src\stm32f4xx_hal_pwr_ex.c ****   */
 232:C:/Users/LC/STM32Cube/Repository/STM32Cube_FW_F4_V1.28.0/Drivers/STM32F4xx_HAL_Driver/Src\stm32f4xx_hal_pwr_ex.c **** HAL_StatusTypeDef HAL_PWREx_ControlVoltageScaling(uint32_t VoltageScaling)
 233:C:/Users/LC/STM32Cube/Repository/STM32Cube_FW_F4_V1.28.0/Drivers/STM32F4xx_HAL_Driver/Src\stm32f4xx_hal_pwr_ex.c **** {
 234:C:/Users/LC/STM32Cube/Repository/STM32Cube_FW_F4_V1.28.0/Drivers/STM32F4xx_HAL_Driver/Src\stm32f4xx_hal_pwr_ex.c ****   uint32_t tickstart = 0U;
 235:C:/Users/LC/STM32Cube/Repository/STM32Cube_FW_F4_V1.28.0/Drivers/STM32F4xx_HAL_Driver/Src\stm32f4xx_hal_pwr_ex.c ****   
 236:C:/Users/LC/STM32Cube/Repository/STM32Cube_FW_F4_V1.28.0/Drivers/STM32F4xx_HAL_Driver/Src\stm32f4xx_hal_pwr_ex.c ****   assert_param(IS_PWR_VOLTAGE_SCALING_RANGE(VoltageScaling));
 237:C:/Users/LC/STM32Cube/Repository/STM32Cube_FW_F4_V1.28.0/Drivers/STM32F4xx_HAL_Driver/Src\stm32f4xx_hal_pwr_ex.c ****   
 238:C:/Users/LC/STM32Cube/Repository/STM32Cube_FW_F4_V1.28.0/Drivers/STM32F4xx_HAL_Driver/Src\stm32f4xx_hal_pwr_ex.c ****   /* Enable PWR RCC Clock Peripheral */
 239:C:/Users/LC/STM32Cube/Repository/STM32Cube_FW_F4_V1.28.0/Drivers/STM32F4xx_HAL_Driver/Src\stm32f4xx_hal_pwr_ex.c ****   __HAL_RCC_PWR_CLK_ENABLE();
 240:C:/Users/LC/STM32Cube/Repository/STM32Cube_FW_F4_V1.28.0/Drivers/STM32F4xx_HAL_Driver/Src\stm32f4xx_hal_pwr_ex.c ****   
 241:C:/Users/LC/STM32Cube/Repository/STM32Cube_FW_F4_V1.28.0/Drivers/STM32F4xx_HAL_Driver/Src\stm32f4xx_hal_pwr_ex.c ****   /* Set Range */
 242:C:/Users/LC/STM32Cube/Repository/STM32Cube_FW_F4_V1.28.0/Drivers/STM32F4xx_HAL_Driver/Src\stm32f4xx_hal_pwr_ex.c ****   __HAL_PWR_VOLTAGESCALING_CONFIG(VoltageScaling);
 243:C:/Users/LC/STM32Cube/Repository/STM32Cube_FW_F4_V1.28.0/Drivers/STM32F4xx_HAL_Driver/Src\stm32f4xx_hal_pwr_ex.c ****   
 244:C:/Users/LC/STM32Cube/Repository/STM32Cube_FW_F4_V1.28.0/Drivers/STM32F4xx_HAL_Driver/Src\stm32f4xx_hal_pwr_ex.c ****   /* Get Start Tick*/
 245:C:/Users/LC/STM32Cube/Repository/STM32Cube_FW_F4_V1.28.0/Drivers/STM32F4xx_HAL_Driver/Src\stm32f4xx_hal_pwr_ex.c ****   tickstart = HAL_GetTick();
 246:C:/Users/LC/STM32Cube/Repository/STM32Cube_FW_F4_V1.28.0/Drivers/STM32F4xx_HAL_Driver/Src\stm32f4xx_hal_pwr_ex.c ****   while((__HAL_PWR_GET_FLAG(PWR_FLAG_VOSRDY) == RESET))
 247:C:/Users/LC/STM32Cube/Repository/STM32Cube_FW_F4_V1.28.0/Drivers/STM32F4xx_HAL_Driver/Src\stm32f4xx_hal_pwr_ex.c ****   {
 248:C:/Users/LC/STM32Cube/Repository/STM32Cube_FW_F4_V1.28.0/Drivers/STM32F4xx_HAL_Driver/Src\stm32f4xx_hal_pwr_ex.c ****     if((HAL_GetTick() - tickstart ) > PWR_VOSRDY_TIMEOUT_VALUE)
 249:C:/Users/LC/STM32Cube/Repository/STM32Cube_FW_F4_V1.28.0/Drivers/STM32F4xx_HAL_Driver/Src\stm32f4xx_hal_pwr_ex.c ****     {
 250:C:/Users/LC/STM32Cube/Repository/STM32Cube_FW_F4_V1.28.0/Drivers/STM32F4xx_HAL_Driver/Src\stm32f4xx_hal_pwr_ex.c ****       return HAL_TIMEOUT;
 251:C:/Users/LC/STM32Cube/Repository/STM32Cube_FW_F4_V1.28.0/Drivers/STM32F4xx_HAL_Driver/Src\stm32f4xx_hal_pwr_ex.c ****     } 
 252:C:/Users/LC/STM32Cube/Repository/STM32Cube_FW_F4_V1.28.0/Drivers/STM32F4xx_HAL_Driver/Src\stm32f4xx_hal_pwr_ex.c ****   }
 253:C:/Users/LC/STM32Cube/Repository/STM32Cube_FW_F4_V1.28.0/Drivers/STM32F4xx_HAL_Driver/Src\stm32f4xx_hal_pwr_ex.c **** 
 254:C:/Users/LC/STM32Cube/Repository/STM32Cube_FW_F4_V1.28.0/Drivers/STM32F4xx_HAL_Driver/Src\stm32f4xx_hal_pwr_ex.c ****   return HAL_OK;
 255:C:/Users/LC/STM32Cube/Repository/STM32Cube_FW_F4_V1.28.0/Drivers/STM32F4xx_HAL_Driver/Src\stm32f4xx_hal_pwr_ex.c **** }
 256:C:/Users/LC/STM32Cube/Repository/STM32Cube_FW_F4_V1.28.0/Drivers/STM32F4xx_HAL_Driver/Src\stm32f4xx_hal_pwr_ex.c **** 
 257:C:/Users/LC/STM32Cube/Repository/STM32Cube_FW_F4_V1.28.0/Drivers/STM32F4xx_HAL_Driver/Src\stm32f4xx_hal_pwr_ex.c **** #elif defined(STM32F427xx) || defined(STM32F437xx) || defined(STM32F429xx) || defined(STM32F439xx) 
 258:C:/Users/LC/STM32Cube/Repository/STM32Cube_FW_F4_V1.28.0/Drivers/STM32F4xx_HAL_Driver/Src\stm32f4xx_hal_pwr_ex.c ****       defined(STM32F401xC) || defined(STM32F401xE) || defined(STM32F410Tx) || defined(STM32F410Cx) 
 259:C:/Users/LC/STM32Cube/Repository/STM32Cube_FW_F4_V1.28.0/Drivers/STM32F4xx_HAL_Driver/Src\stm32f4xx_hal_pwr_ex.c ****       defined(STM32F410Rx) || defined(STM32F411xE) || defined(STM32F446xx) || defined(STM32F469xx) 
 260:C:/Users/LC/STM32Cube/Repository/STM32Cube_FW_F4_V1.28.0/Drivers/STM32F4xx_HAL_Driver/Src\stm32f4xx_hal_pwr_ex.c ****       defined(STM32F479xx) || defined(STM32F412Zx) || defined(STM32F412Vx) || defined(STM32F412Rx) 
 261:C:/Users/LC/STM32Cube/Repository/STM32Cube_FW_F4_V1.28.0/Drivers/STM32F4xx_HAL_Driver/Src\stm32f4xx_hal_pwr_ex.c ****       defined(STM32F412Cx) || defined(STM32F413xx) || defined(STM32F423xx)
 262:C:/Users/LC/STM32Cube/Repository/STM32Cube_FW_F4_V1.28.0/Drivers/STM32F4xx_HAL_Driver/Src\stm32f4xx_hal_pwr_ex.c **** /**
 263:C:/Users/LC/STM32Cube/Repository/STM32Cube_FW_F4_V1.28.0/Drivers/STM32F4xx_HAL_Driver/Src\stm32f4xx_hal_pwr_ex.c ****   * @brief Configures the main internal regulator output voltage.
 264:C:/Users/LC/STM32Cube/Repository/STM32Cube_FW_F4_V1.28.0/Drivers/STM32F4xx_HAL_Driver/Src\stm32f4xx_hal_pwr_ex.c ****   * @param  VoltageScaling specifies the regulator output voltage to achieve
 265:C:/Users/LC/STM32Cube/Repository/STM32Cube_FW_F4_V1.28.0/Drivers/STM32F4xx_HAL_Driver/Src\stm32f4xx_hal_pwr_ex.c ****   *         a tradeoff between performance and power consumption.
 266:C:/Users/LC/STM32Cube/Repository/STM32Cube_FW_F4_V1.28.0/Drivers/STM32F4xx_HAL_Driver/Src\stm32f4xx_hal_pwr_ex.c ****   *          This parameter can be one of the following values:
 267:C:/Users/LC/STM32Cube/Repository/STM32Cube_FW_F4_V1.28.0/Drivers/STM32F4xx_HAL_Driver/Src\stm32f4xx_hal_pwr_ex.c ****   *            @arg PWR_REGULATOR_VOLTAGE_SCALE1: Regulator voltage output range 1 mode,
 268:C:/Users/LC/STM32Cube/Repository/STM32Cube_FW_F4_V1.28.0/Drivers/STM32F4xx_HAL_Driver/Src\stm32f4xx_hal_pwr_ex.c ****   *                                               the maximum value of fHCLK is 168 MHz. It can be 
 269:C:/Users/LC/STM32Cube/Repository/STM32Cube_FW_F4_V1.28.0/Drivers/STM32F4xx_HAL_Driver/Src\stm32f4xx_hal_pwr_ex.c ****   *                                               180 MHz by activating the over-drive mode.
 270:C:/Users/LC/STM32Cube/Repository/STM32Cube_FW_F4_V1.28.0/Drivers/STM32F4xx_HAL_Driver/Src\stm32f4xx_hal_pwr_ex.c ****   *            @arg PWR_REGULATOR_VOLTAGE_SCALE2: Regulator voltage output range 2 mode,
 271:C:/Users/LC/STM32Cube/Repository/STM32Cube_FW_F4_V1.28.0/Drivers/STM32F4xx_HAL_Driver/Src\stm32f4xx_hal_pwr_ex.c ****   *                                               the maximum value of fHCLK is 144 MHz. It can be 
 272:C:/Users/LC/STM32Cube/Repository/STM32Cube_FW_F4_V1.28.0/Drivers/STM32F4xx_HAL_Driver/Src\stm32f4xx_hal_pwr_ex.c ****   *                                               168 MHz by activating the over-drive mode.
 273:C:/Users/LC/STM32Cube/Repository/STM32Cube_FW_F4_V1.28.0/Drivers/STM32F4xx_HAL_Driver/Src\stm32f4xx_hal_pwr_ex.c ****   *            @arg PWR_REGULATOR_VOLTAGE_SCALE3: Regulator voltage output range 3 mode,
 274:C:/Users/LC/STM32Cube/Repository/STM32Cube_FW_F4_V1.28.0/Drivers/STM32F4xx_HAL_Driver/Src\stm32f4xx_hal_pwr_ex.c ****   *                                               the maximum value of fHCLK is 120 MHz.
 275:C:/Users/LC/STM32Cube/Repository/STM32Cube_FW_F4_V1.28.0/Drivers/STM32F4xx_HAL_Driver/Src\stm32f4xx_hal_pwr_ex.c ****   * @note To update the system clock frequency(SYSCLK):
ARM GAS  C:\Users\LC\AppData\Local\Temp\cctO9Ld3.s 			page 10


 276:C:/Users/LC/STM32Cube/Repository/STM32Cube_FW_F4_V1.28.0/Drivers/STM32F4xx_HAL_Driver/Src\stm32f4xx_hal_pwr_ex.c ****   *        - Set the HSI or HSE as system clock frequency using the HAL_RCC_ClockConfig().
 277:C:/Users/LC/STM32Cube/Repository/STM32Cube_FW_F4_V1.28.0/Drivers/STM32F4xx_HAL_Driver/Src\stm32f4xx_hal_pwr_ex.c ****   *        - Call the HAL_RCC_OscConfig() to configure the PLL.
 278:C:/Users/LC/STM32Cube/Repository/STM32Cube_FW_F4_V1.28.0/Drivers/STM32F4xx_HAL_Driver/Src\stm32f4xx_hal_pwr_ex.c ****   *        - Call HAL_PWREx_ConfigVoltageScaling() API to adjust the voltage scale.
 279:C:/Users/LC/STM32Cube/Repository/STM32Cube_FW_F4_V1.28.0/Drivers/STM32F4xx_HAL_Driver/Src\stm32f4xx_hal_pwr_ex.c ****   *        - Set the new system clock frequency using the HAL_RCC_ClockConfig().
 280:C:/Users/LC/STM32Cube/Repository/STM32Cube_FW_F4_V1.28.0/Drivers/STM32F4xx_HAL_Driver/Src\stm32f4xx_hal_pwr_ex.c ****   * @note The scale can be modified only when the HSI or HSE clock source is selected 
 281:C:/Users/LC/STM32Cube/Repository/STM32Cube_FW_F4_V1.28.0/Drivers/STM32F4xx_HAL_Driver/Src\stm32f4xx_hal_pwr_ex.c ****   *        as system clock source, otherwise the API returns HAL_ERROR.  
 282:C:/Users/LC/STM32Cube/Repository/STM32Cube_FW_F4_V1.28.0/Drivers/STM32F4xx_HAL_Driver/Src\stm32f4xx_hal_pwr_ex.c ****   * @note When the PLL is OFF, the voltage scale 3 is automatically selected and the VOS bits
 283:C:/Users/LC/STM32Cube/Repository/STM32Cube_FW_F4_V1.28.0/Drivers/STM32F4xx_HAL_Driver/Src\stm32f4xx_hal_pwr_ex.c ****   *       value in the PWR_CR1 register are not taken in account.
 284:C:/Users/LC/STM32Cube/Repository/STM32Cube_FW_F4_V1.28.0/Drivers/STM32F4xx_HAL_Driver/Src\stm32f4xx_hal_pwr_ex.c ****   * @note This API forces the PLL state ON to allow the possibility to configure the voltage scale 
 285:C:/Users/LC/STM32Cube/Repository/STM32Cube_FW_F4_V1.28.0/Drivers/STM32F4xx_HAL_Driver/Src\stm32f4xx_hal_pwr_ex.c ****   * @note The new voltage scale is active only when the PLL is ON.  
 286:C:/Users/LC/STM32Cube/Repository/STM32Cube_FW_F4_V1.28.0/Drivers/STM32F4xx_HAL_Driver/Src\stm32f4xx_hal_pwr_ex.c ****   * @retval HAL Status
 287:C:/Users/LC/STM32Cube/Repository/STM32Cube_FW_F4_V1.28.0/Drivers/STM32F4xx_HAL_Driver/Src\stm32f4xx_hal_pwr_ex.c ****   */
 288:C:/Users/LC/STM32Cube/Repository/STM32Cube_FW_F4_V1.28.0/Drivers/STM32F4xx_HAL_Driver/Src\stm32f4xx_hal_pwr_ex.c **** HAL_StatusTypeDef HAL_PWREx_ControlVoltageScaling(uint32_t VoltageScaling)
 289:C:/Users/LC/STM32Cube/Repository/STM32Cube_FW_F4_V1.28.0/Drivers/STM32F4xx_HAL_Driver/Src\stm32f4xx_hal_pwr_ex.c **** {
 250              		.loc 1 289 1 is_stmt 1 view -0
 251              		.cfi_startproc
 252              		@ args = 0, pretend = 0, frame = 8
 253              		@ frame_needed = 0, uses_anonymous_args = 0
 254              		.loc 1 289 1 is_stmt 0 view .LVU49
 255 0000 30B5     		push	{r4, r5, lr}
 256              	.LCFI2:
 257              		.cfi_def_cfa_offset 12
 258              		.cfi_offset 4, -12
 259              		.cfi_offset 5, -8
 260              		.cfi_offset 14, -4
 261 0002 83B0     		sub	sp, sp, #12
 262              	.LCFI3:
 263              		.cfi_def_cfa_offset 24
 290:C:/Users/LC/STM32Cube/Repository/STM32Cube_FW_F4_V1.28.0/Drivers/STM32F4xx_HAL_Driver/Src\stm32f4xx_hal_pwr_ex.c ****   uint32_t tickstart = 0U;
 264              		.loc 1 290 3 is_stmt 1 view .LVU50
 265              	.LVL11:
 291:C:/Users/LC/STM32Cube/Repository/STM32Cube_FW_F4_V1.28.0/Drivers/STM32F4xx_HAL_Driver/Src\stm32f4xx_hal_pwr_ex.c ****   
 292:C:/Users/LC/STM32Cube/Repository/STM32Cube_FW_F4_V1.28.0/Drivers/STM32F4xx_HAL_Driver/Src\stm32f4xx_hal_pwr_ex.c ****   assert_param(IS_PWR_VOLTAGE_SCALING_RANGE(VoltageScaling));
 266              		.loc 1 292 3 view .LVU51
 293:C:/Users/LC/STM32Cube/Repository/STM32Cube_FW_F4_V1.28.0/Drivers/STM32F4xx_HAL_Driver/Src\stm32f4xx_hal_pwr_ex.c ****   
 294:C:/Users/LC/STM32Cube/Repository/STM32Cube_FW_F4_V1.28.0/Drivers/STM32F4xx_HAL_Driver/Src\stm32f4xx_hal_pwr_ex.c ****   /* Enable PWR RCC Clock Peripheral */
 295:C:/Users/LC/STM32Cube/Repository/STM32Cube_FW_F4_V1.28.0/Drivers/STM32F4xx_HAL_Driver/Src\stm32f4xx_hal_pwr_ex.c ****   __HAL_RCC_PWR_CLK_ENABLE();
 267              		.loc 1 295 3 view .LVU52
 268              	.LBB2:
 269              		.loc 1 295 3 view .LVU53
 270 0004 0023     		movs	r3, #0
 271 0006 0093     		str	r3, [sp]
 272              		.loc 1 295 3 view .LVU54
 273 0008 2A4B     		ldr	r3, .L44
 274 000a 1A6C     		ldr	r2, [r3, #64]
 275 000c 42F08052 		orr	r2, r2, #268435456
 276 0010 1A64     		str	r2, [r3, #64]
 277              		.loc 1 295 3 view .LVU55
 278 0012 1A6C     		ldr	r2, [r3, #64]
 279 0014 02F08052 		and	r2, r2, #268435456
 280 0018 0092     		str	r2, [sp]
 281              		.loc 1 295 3 view .LVU56
 282 001a 009A     		ldr	r2, [sp]
 283              	.LBE2:
 284              		.loc 1 295 3 view .LVU57
 296:C:/Users/LC/STM32Cube/Repository/STM32Cube_FW_F4_V1.28.0/Drivers/STM32F4xx_HAL_Driver/Src\stm32f4xx_hal_pwr_ex.c ****   
 297:C:/Users/LC/STM32Cube/Repository/STM32Cube_FW_F4_V1.28.0/Drivers/STM32F4xx_HAL_Driver/Src\stm32f4xx_hal_pwr_ex.c ****   /* Check if the PLL is used as system clock or not */
ARM GAS  C:\Users\LC\AppData\Local\Temp\cctO9Ld3.s 			page 11


 298:C:/Users/LC/STM32Cube/Repository/STM32Cube_FW_F4_V1.28.0/Drivers/STM32F4xx_HAL_Driver/Src\stm32f4xx_hal_pwr_ex.c ****   if(__HAL_RCC_GET_SYSCLK_SOURCE() != RCC_CFGR_SWS_PLL)
 285              		.loc 1 298 3 view .LVU58
 286              		.loc 1 298 6 is_stmt 0 view .LVU59
 287 001c 9B68     		ldr	r3, [r3, #8]
 288 001e 03F00C03 		and	r3, r3, #12
 289              		.loc 1 298 5 view .LVU60
 290 0022 082B     		cmp	r3, #8
 291 0024 43D0     		beq	.L36
 292 0026 0546     		mov	r5, r0
 299:C:/Users/LC/STM32Cube/Repository/STM32Cube_FW_F4_V1.28.0/Drivers/STM32F4xx_HAL_Driver/Src\stm32f4xx_hal_pwr_ex.c ****   {
 300:C:/Users/LC/STM32Cube/Repository/STM32Cube_FW_F4_V1.28.0/Drivers/STM32F4xx_HAL_Driver/Src\stm32f4xx_hal_pwr_ex.c ****     /* Disable the main PLL */
 301:C:/Users/LC/STM32Cube/Repository/STM32Cube_FW_F4_V1.28.0/Drivers/STM32F4xx_HAL_Driver/Src\stm32f4xx_hal_pwr_ex.c ****     __HAL_RCC_PLL_DISABLE();
 293              		.loc 1 301 5 is_stmt 1 view .LVU61
 294 0028 234B     		ldr	r3, .L44+4
 295 002a 0022     		movs	r2, #0
 296 002c 1A66     		str	r2, [r3, #96]
 302:C:/Users/LC/STM32Cube/Repository/STM32Cube_FW_F4_V1.28.0/Drivers/STM32F4xx_HAL_Driver/Src\stm32f4xx_hal_pwr_ex.c ****     
 303:C:/Users/LC/STM32Cube/Repository/STM32Cube_FW_F4_V1.28.0/Drivers/STM32F4xx_HAL_Driver/Src\stm32f4xx_hal_pwr_ex.c ****     /* Get Start Tick */
 304:C:/Users/LC/STM32Cube/Repository/STM32Cube_FW_F4_V1.28.0/Drivers/STM32F4xx_HAL_Driver/Src\stm32f4xx_hal_pwr_ex.c ****     tickstart = HAL_GetTick();    
 297              		.loc 1 304 5 view .LVU62
 298              		.loc 1 304 17 is_stmt 0 view .LVU63
 299 002e FFF7FEFF 		bl	HAL_GetTick
 300              	.LVL12:
 301              		.loc 1 304 17 view .LVU64
 302 0032 0446     		mov	r4, r0
 303              	.LVL13:
 305:C:/Users/LC/STM32Cube/Repository/STM32Cube_FW_F4_V1.28.0/Drivers/STM32F4xx_HAL_Driver/Src\stm32f4xx_hal_pwr_ex.c ****     /* Wait till PLL is disabled */  
 306:C:/Users/LC/STM32Cube/Repository/STM32Cube_FW_F4_V1.28.0/Drivers/STM32F4xx_HAL_Driver/Src\stm32f4xx_hal_pwr_ex.c ****     while(__HAL_RCC_GET_FLAG(RCC_FLAG_PLLRDY) != RESET)
 304              		.loc 1 306 5 is_stmt 1 view .LVU65
 305              	.L30:
 306              		.loc 1 306 10 view .LVU66
 307              		.loc 1 306 11 is_stmt 0 view .LVU67
 308 0034 1F4B     		ldr	r3, .L44
 309 0036 1B68     		ldr	r3, [r3]
 310              		.loc 1 306 10 view .LVU68
 311 0038 13F0007F 		tst	r3, #33554432
 312 003c 06D0     		beq	.L41
 307:C:/Users/LC/STM32Cube/Repository/STM32Cube_FW_F4_V1.28.0/Drivers/STM32F4xx_HAL_Driver/Src\stm32f4xx_hal_pwr_ex.c ****     {
 308:C:/Users/LC/STM32Cube/Repository/STM32Cube_FW_F4_V1.28.0/Drivers/STM32F4xx_HAL_Driver/Src\stm32f4xx_hal_pwr_ex.c ****       if((HAL_GetTick() - tickstart ) > PLL_TIMEOUT_VALUE)
 313              		.loc 1 308 7 is_stmt 1 view .LVU69
 314              		.loc 1 308 11 is_stmt 0 view .LVU70
 315 003e FFF7FEFF 		bl	HAL_GetTick
 316              	.LVL14:
 317              		.loc 1 308 25 view .LVU71
 318 0042 031B     		subs	r3, r0, r4
 319              		.loc 1 308 9 view .LVU72
 320 0044 022B     		cmp	r3, #2
 321 0046 F5D9     		bls	.L30
 309:C:/Users/LC/STM32Cube/Repository/STM32Cube_FW_F4_V1.28.0/Drivers/STM32F4xx_HAL_Driver/Src\stm32f4xx_hal_pwr_ex.c ****       {
 310:C:/Users/LC/STM32Cube/Repository/STM32Cube_FW_F4_V1.28.0/Drivers/STM32F4xx_HAL_Driver/Src\stm32f4xx_hal_pwr_ex.c ****         return HAL_TIMEOUT;
 322              		.loc 1 310 16 view .LVU73
 323 0048 0320     		movs	r0, #3
 324 004a 31E0     		b	.L29
 325              	.L41:
 311:C:/Users/LC/STM32Cube/Repository/STM32Cube_FW_F4_V1.28.0/Drivers/STM32F4xx_HAL_Driver/Src\stm32f4xx_hal_pwr_ex.c ****       }
 312:C:/Users/LC/STM32Cube/Repository/STM32Cube_FW_F4_V1.28.0/Drivers/STM32F4xx_HAL_Driver/Src\stm32f4xx_hal_pwr_ex.c ****     }
 313:C:/Users/LC/STM32Cube/Repository/STM32Cube_FW_F4_V1.28.0/Drivers/STM32F4xx_HAL_Driver/Src\stm32f4xx_hal_pwr_ex.c ****     
ARM GAS  C:\Users\LC\AppData\Local\Temp\cctO9Ld3.s 			page 12


 314:C:/Users/LC/STM32Cube/Repository/STM32Cube_FW_F4_V1.28.0/Drivers/STM32F4xx_HAL_Driver/Src\stm32f4xx_hal_pwr_ex.c ****     /* Set Range */
 315:C:/Users/LC/STM32Cube/Repository/STM32Cube_FW_F4_V1.28.0/Drivers/STM32F4xx_HAL_Driver/Src\stm32f4xx_hal_pwr_ex.c ****     __HAL_PWR_VOLTAGESCALING_CONFIG(VoltageScaling);
 326              		.loc 1 315 5 is_stmt 1 view .LVU74
 327              	.LBB3:
 328              		.loc 1 315 5 view .LVU75
 329 004c 0023     		movs	r3, #0
 330 004e 0193     		str	r3, [sp, #4]
 331              		.loc 1 315 5 view .LVU76
 332 0050 1A4A     		ldr	r2, .L44+8
 333 0052 1368     		ldr	r3, [r2]
 334 0054 23F44043 		bic	r3, r3, #49152
 335 0058 1D43     		orrs	r5, r5, r3
 336              	.LVL15:
 337              		.loc 1 315 5 is_stmt 0 view .LVU77
 338 005a 1560     		str	r5, [r2]
 339              		.loc 1 315 5 is_stmt 1 view .LVU78
 340 005c 1368     		ldr	r3, [r2]
 341 005e 03F44043 		and	r3, r3, #49152
 342 0062 0193     		str	r3, [sp, #4]
 343              		.loc 1 315 5 view .LVU79
 344 0064 019B     		ldr	r3, [sp, #4]
 345              	.LBE3:
 346              		.loc 1 315 5 view .LVU80
 316:C:/Users/LC/STM32Cube/Repository/STM32Cube_FW_F4_V1.28.0/Drivers/STM32F4xx_HAL_Driver/Src\stm32f4xx_hal_pwr_ex.c ****     
 317:C:/Users/LC/STM32Cube/Repository/STM32Cube_FW_F4_V1.28.0/Drivers/STM32F4xx_HAL_Driver/Src\stm32f4xx_hal_pwr_ex.c ****     /* Enable the main PLL */
 318:C:/Users/LC/STM32Cube/Repository/STM32Cube_FW_F4_V1.28.0/Drivers/STM32F4xx_HAL_Driver/Src\stm32f4xx_hal_pwr_ex.c ****     __HAL_RCC_PLL_ENABLE();
 347              		.loc 1 318 5 view .LVU81
 348 0066 144B     		ldr	r3, .L44+4
 349 0068 0122     		movs	r2, #1
 350 006a 1A66     		str	r2, [r3, #96]
 319:C:/Users/LC/STM32Cube/Repository/STM32Cube_FW_F4_V1.28.0/Drivers/STM32F4xx_HAL_Driver/Src\stm32f4xx_hal_pwr_ex.c ****     
 320:C:/Users/LC/STM32Cube/Repository/STM32Cube_FW_F4_V1.28.0/Drivers/STM32F4xx_HAL_Driver/Src\stm32f4xx_hal_pwr_ex.c ****     /* Get Start Tick */
 321:C:/Users/LC/STM32Cube/Repository/STM32Cube_FW_F4_V1.28.0/Drivers/STM32F4xx_HAL_Driver/Src\stm32f4xx_hal_pwr_ex.c ****     tickstart = HAL_GetTick();
 351              		.loc 1 321 5 view .LVU82
 352              		.loc 1 321 17 is_stmt 0 view .LVU83
 353 006c FFF7FEFF 		bl	HAL_GetTick
 354              	.LVL16:
 355 0070 0446     		mov	r4, r0
 356              	.LVL17:
 322:C:/Users/LC/STM32Cube/Repository/STM32Cube_FW_F4_V1.28.0/Drivers/STM32F4xx_HAL_Driver/Src\stm32f4xx_hal_pwr_ex.c ****     /* Wait till PLL is ready */  
 323:C:/Users/LC/STM32Cube/Repository/STM32Cube_FW_F4_V1.28.0/Drivers/STM32F4xx_HAL_Driver/Src\stm32f4xx_hal_pwr_ex.c ****     while(__HAL_RCC_GET_FLAG(RCC_FLAG_PLLRDY) == RESET)
 357              		.loc 1 323 5 is_stmt 1 view .LVU84
 358              	.L32:
 359              		.loc 1 323 10 view .LVU85
 360              		.loc 1 323 11 is_stmt 0 view .LVU86
 361 0072 104B     		ldr	r3, .L44
 362 0074 1B68     		ldr	r3, [r3]
 363              		.loc 1 323 10 view .LVU87
 364 0076 13F0007F 		tst	r3, #33554432
 365 007a 06D1     		bne	.L42
 324:C:/Users/LC/STM32Cube/Repository/STM32Cube_FW_F4_V1.28.0/Drivers/STM32F4xx_HAL_Driver/Src\stm32f4xx_hal_pwr_ex.c ****     {
 325:C:/Users/LC/STM32Cube/Repository/STM32Cube_FW_F4_V1.28.0/Drivers/STM32F4xx_HAL_Driver/Src\stm32f4xx_hal_pwr_ex.c ****       if((HAL_GetTick() - tickstart ) > PLL_TIMEOUT_VALUE)
 366              		.loc 1 325 7 is_stmt 1 view .LVU88
 367              		.loc 1 325 11 is_stmt 0 view .LVU89
 368 007c FFF7FEFF 		bl	HAL_GetTick
 369              	.LVL18:
 370              		.loc 1 325 25 view .LVU90
ARM GAS  C:\Users\LC\AppData\Local\Temp\cctO9Ld3.s 			page 13


 371 0080 001B     		subs	r0, r0, r4
 372              		.loc 1 325 9 view .LVU91
 373 0082 0228     		cmp	r0, #2
 374 0084 F5D9     		bls	.L32
 326:C:/Users/LC/STM32Cube/Repository/STM32Cube_FW_F4_V1.28.0/Drivers/STM32F4xx_HAL_Driver/Src\stm32f4xx_hal_pwr_ex.c ****       {
 327:C:/Users/LC/STM32Cube/Repository/STM32Cube_FW_F4_V1.28.0/Drivers/STM32F4xx_HAL_Driver/Src\stm32f4xx_hal_pwr_ex.c ****         return HAL_TIMEOUT;
 375              		.loc 1 327 16 view .LVU92
 376 0086 0320     		movs	r0, #3
 377 0088 12E0     		b	.L29
 378              	.L42:
 328:C:/Users/LC/STM32Cube/Repository/STM32Cube_FW_F4_V1.28.0/Drivers/STM32F4xx_HAL_Driver/Src\stm32f4xx_hal_pwr_ex.c ****       } 
 329:C:/Users/LC/STM32Cube/Repository/STM32Cube_FW_F4_V1.28.0/Drivers/STM32F4xx_HAL_Driver/Src\stm32f4xx_hal_pwr_ex.c ****     }
 330:C:/Users/LC/STM32Cube/Repository/STM32Cube_FW_F4_V1.28.0/Drivers/STM32F4xx_HAL_Driver/Src\stm32f4xx_hal_pwr_ex.c ****     
 331:C:/Users/LC/STM32Cube/Repository/STM32Cube_FW_F4_V1.28.0/Drivers/STM32F4xx_HAL_Driver/Src\stm32f4xx_hal_pwr_ex.c ****     /* Get Start Tick */
 332:C:/Users/LC/STM32Cube/Repository/STM32Cube_FW_F4_V1.28.0/Drivers/STM32F4xx_HAL_Driver/Src\stm32f4xx_hal_pwr_ex.c ****     tickstart = HAL_GetTick();
 379              		.loc 1 332 5 is_stmt 1 view .LVU93
 380              		.loc 1 332 17 is_stmt 0 view .LVU94
 381 008a FFF7FEFF 		bl	HAL_GetTick
 382              	.LVL19:
 383 008e 0446     		mov	r4, r0
 384              	.LVL20:
 333:C:/Users/LC/STM32Cube/Repository/STM32Cube_FW_F4_V1.28.0/Drivers/STM32F4xx_HAL_Driver/Src\stm32f4xx_hal_pwr_ex.c ****     while((__HAL_PWR_GET_FLAG(PWR_FLAG_VOSRDY) == RESET))
 385              		.loc 1 333 5 is_stmt 1 view .LVU95
 386              	.L34:
 387              		.loc 1 333 10 view .LVU96
 388              		.loc 1 333 12 is_stmt 0 view .LVU97
 389 0090 0A4B     		ldr	r3, .L44+8
 390 0092 5B68     		ldr	r3, [r3, #4]
 391              		.loc 1 333 10 view .LVU98
 392 0094 13F4804F 		tst	r3, #16384
 393 0098 07D1     		bne	.L43
 334:C:/Users/LC/STM32Cube/Repository/STM32Cube_FW_F4_V1.28.0/Drivers/STM32F4xx_HAL_Driver/Src\stm32f4xx_hal_pwr_ex.c ****     {
 335:C:/Users/LC/STM32Cube/Repository/STM32Cube_FW_F4_V1.28.0/Drivers/STM32F4xx_HAL_Driver/Src\stm32f4xx_hal_pwr_ex.c ****       if((HAL_GetTick() - tickstart ) > PWR_VOSRDY_TIMEOUT_VALUE)
 394              		.loc 1 335 7 is_stmt 1 view .LVU99
 395              		.loc 1 335 11 is_stmt 0 view .LVU100
 396 009a FFF7FEFF 		bl	HAL_GetTick
 397              	.LVL21:
 398              		.loc 1 335 25 view .LVU101
 399 009e 001B     		subs	r0, r0, r4
 400              		.loc 1 335 9 view .LVU102
 401 00a0 B0F57A7F 		cmp	r0, #1000
 402 00a4 F4D9     		bls	.L34
 336:C:/Users/LC/STM32Cube/Repository/STM32Cube_FW_F4_V1.28.0/Drivers/STM32F4xx_HAL_Driver/Src\stm32f4xx_hal_pwr_ex.c ****       {
 337:C:/Users/LC/STM32Cube/Repository/STM32Cube_FW_F4_V1.28.0/Drivers/STM32F4xx_HAL_Driver/Src\stm32f4xx_hal_pwr_ex.c ****         return HAL_TIMEOUT;
 403              		.loc 1 337 16 view .LVU103
 404 00a6 0320     		movs	r0, #3
 405 00a8 02E0     		b	.L29
 406              	.L43:
 338:C:/Users/LC/STM32Cube/Repository/STM32Cube_FW_F4_V1.28.0/Drivers/STM32F4xx_HAL_Driver/Src\stm32f4xx_hal_pwr_ex.c ****       } 
 339:C:/Users/LC/STM32Cube/Repository/STM32Cube_FW_F4_V1.28.0/Drivers/STM32F4xx_HAL_Driver/Src\stm32f4xx_hal_pwr_ex.c ****     }
 340:C:/Users/LC/STM32Cube/Repository/STM32Cube_FW_F4_V1.28.0/Drivers/STM32F4xx_HAL_Driver/Src\stm32f4xx_hal_pwr_ex.c ****   }
 341:C:/Users/LC/STM32Cube/Repository/STM32Cube_FW_F4_V1.28.0/Drivers/STM32F4xx_HAL_Driver/Src\stm32f4xx_hal_pwr_ex.c ****   else
 342:C:/Users/LC/STM32Cube/Repository/STM32Cube_FW_F4_V1.28.0/Drivers/STM32F4xx_HAL_Driver/Src\stm32f4xx_hal_pwr_ex.c ****   {
 343:C:/Users/LC/STM32Cube/Repository/STM32Cube_FW_F4_V1.28.0/Drivers/STM32F4xx_HAL_Driver/Src\stm32f4xx_hal_pwr_ex.c ****     return HAL_ERROR;
 344:C:/Users/LC/STM32Cube/Repository/STM32Cube_FW_F4_V1.28.0/Drivers/STM32F4xx_HAL_Driver/Src\stm32f4xx_hal_pwr_ex.c ****   }
 345:C:/Users/LC/STM32Cube/Repository/STM32Cube_FW_F4_V1.28.0/Drivers/STM32F4xx_HAL_Driver/Src\stm32f4xx_hal_pwr_ex.c **** 
 346:C:/Users/LC/STM32Cube/Repository/STM32Cube_FW_F4_V1.28.0/Drivers/STM32F4xx_HAL_Driver/Src\stm32f4xx_hal_pwr_ex.c ****   return HAL_OK;
ARM GAS  C:\Users\LC\AppData\Local\Temp\cctO9Ld3.s 			page 14


 407              		.loc 1 346 10 view .LVU104
 408 00aa 0020     		movs	r0, #0
 409 00ac 00E0     		b	.L29
 410              	.LVL22:
 411              	.L36:
 343:C:/Users/LC/STM32Cube/Repository/STM32Cube_FW_F4_V1.28.0/Drivers/STM32F4xx_HAL_Driver/Src\stm32f4xx_hal_pwr_ex.c ****   }
 412              		.loc 1 343 12 view .LVU105
 413 00ae 0120     		movs	r0, #1
 414              	.LVL23:
 415              	.L29:
 347:C:/Users/LC/STM32Cube/Repository/STM32Cube_FW_F4_V1.28.0/Drivers/STM32F4xx_HAL_Driver/Src\stm32f4xx_hal_pwr_ex.c **** }
 416              		.loc 1 347 1 view .LVU106
 417 00b0 03B0     		add	sp, sp, #12
 418              	.LCFI4:
 419              		.cfi_def_cfa_offset 12
 420              		@ sp needed
 421 00b2 30BD     		pop	{r4, r5, pc}
 422              	.L45:
 423              		.align	2
 424              	.L44:
 425 00b4 00380240 		.word	1073887232
 426 00b8 00004742 		.word	1111949312
 427 00bc 00700040 		.word	1073770496
 428              		.cfi_endproc
 429              	.LFE139:
 431              		.section	.text.HAL_PWREx_EnableOverDrive,"ax",%progbits
 432              		.align	1
 433              		.global	HAL_PWREx_EnableOverDrive
 434              		.syntax unified
 435              		.thumb
 436              		.thumb_func
 438              	HAL_PWREx_EnableOverDrive:
 439              	.LFB140:
 348:C:/Users/LC/STM32Cube/Repository/STM32Cube_FW_F4_V1.28.0/Drivers/STM32F4xx_HAL_Driver/Src\stm32f4xx_hal_pwr_ex.c **** #endif /* STM32F405xx || STM32F415xx || STM32F407xx || STM32F417xx */
 349:C:/Users/LC/STM32Cube/Repository/STM32Cube_FW_F4_V1.28.0/Drivers/STM32F4xx_HAL_Driver/Src\stm32f4xx_hal_pwr_ex.c **** 
 350:C:/Users/LC/STM32Cube/Repository/STM32Cube_FW_F4_V1.28.0/Drivers/STM32F4xx_HAL_Driver/Src\stm32f4xx_hal_pwr_ex.c **** #if defined(STM32F401xC) || defined(STM32F401xE) || defined(STM32F410Tx) || defined(STM32F410Cx) ||
 351:C:/Users/LC/STM32Cube/Repository/STM32Cube_FW_F4_V1.28.0/Drivers/STM32F4xx_HAL_Driver/Src\stm32f4xx_hal_pwr_ex.c ****     defined(STM32F411xE) || defined(STM32F412Zx) || defined(STM32F412Vx) || defined(STM32F412Rx) ||
 352:C:/Users/LC/STM32Cube/Repository/STM32Cube_FW_F4_V1.28.0/Drivers/STM32F4xx_HAL_Driver/Src\stm32f4xx_hal_pwr_ex.c ****     defined(STM32F413xx) || defined(STM32F423xx)
 353:C:/Users/LC/STM32Cube/Repository/STM32Cube_FW_F4_V1.28.0/Drivers/STM32F4xx_HAL_Driver/Src\stm32f4xx_hal_pwr_ex.c **** /**
 354:C:/Users/LC/STM32Cube/Repository/STM32Cube_FW_F4_V1.28.0/Drivers/STM32F4xx_HAL_Driver/Src\stm32f4xx_hal_pwr_ex.c ****   * @brief Enables Main Regulator low voltage mode.
 355:C:/Users/LC/STM32Cube/Repository/STM32Cube_FW_F4_V1.28.0/Drivers/STM32F4xx_HAL_Driver/Src\stm32f4xx_hal_pwr_ex.c ****   * @note  This mode is only available for STM32F401xx/STM32F410xx/STM32F411xx/STM32F412Zx/STM32F41
 356:C:/Users/LC/STM32Cube/Repository/STM32Cube_FW_F4_V1.28.0/Drivers/STM32F4xx_HAL_Driver/Src\stm32f4xx_hal_pwr_ex.c ****   *        STM32F413xx/STM32F423xx devices.   
 357:C:/Users/LC/STM32Cube/Repository/STM32Cube_FW_F4_V1.28.0/Drivers/STM32F4xx_HAL_Driver/Src\stm32f4xx_hal_pwr_ex.c ****   * @retval None
 358:C:/Users/LC/STM32Cube/Repository/STM32Cube_FW_F4_V1.28.0/Drivers/STM32F4xx_HAL_Driver/Src\stm32f4xx_hal_pwr_ex.c ****   */
 359:C:/Users/LC/STM32Cube/Repository/STM32Cube_FW_F4_V1.28.0/Drivers/STM32F4xx_HAL_Driver/Src\stm32f4xx_hal_pwr_ex.c **** void HAL_PWREx_EnableMainRegulatorLowVoltage(void)
 360:C:/Users/LC/STM32Cube/Repository/STM32Cube_FW_F4_V1.28.0/Drivers/STM32F4xx_HAL_Driver/Src\stm32f4xx_hal_pwr_ex.c **** {
 361:C:/Users/LC/STM32Cube/Repository/STM32Cube_FW_F4_V1.28.0/Drivers/STM32F4xx_HAL_Driver/Src\stm32f4xx_hal_pwr_ex.c ****   *(__IO uint32_t *) CR_MRLVDS_BB = (uint32_t)ENABLE;
 362:C:/Users/LC/STM32Cube/Repository/STM32Cube_FW_F4_V1.28.0/Drivers/STM32F4xx_HAL_Driver/Src\stm32f4xx_hal_pwr_ex.c **** }
 363:C:/Users/LC/STM32Cube/Repository/STM32Cube_FW_F4_V1.28.0/Drivers/STM32F4xx_HAL_Driver/Src\stm32f4xx_hal_pwr_ex.c **** 
 364:C:/Users/LC/STM32Cube/Repository/STM32Cube_FW_F4_V1.28.0/Drivers/STM32F4xx_HAL_Driver/Src\stm32f4xx_hal_pwr_ex.c **** /**
 365:C:/Users/LC/STM32Cube/Repository/STM32Cube_FW_F4_V1.28.0/Drivers/STM32F4xx_HAL_Driver/Src\stm32f4xx_hal_pwr_ex.c ****   * @brief Disables Main Regulator low voltage mode.
 366:C:/Users/LC/STM32Cube/Repository/STM32Cube_FW_F4_V1.28.0/Drivers/STM32F4xx_HAL_Driver/Src\stm32f4xx_hal_pwr_ex.c ****   * @note  This mode is only available for STM32F401xx/STM32F410xx/STM32F411xx/STM32F412Zx/STM32F41
 367:C:/Users/LC/STM32Cube/Repository/STM32Cube_FW_F4_V1.28.0/Drivers/STM32F4xx_HAL_Driver/Src\stm32f4xx_hal_pwr_ex.c ****   *        STM32F413xx/STM32F423xxdevices. 
 368:C:/Users/LC/STM32Cube/Repository/STM32Cube_FW_F4_V1.28.0/Drivers/STM32F4xx_HAL_Driver/Src\stm32f4xx_hal_pwr_ex.c ****   * @retval None
 369:C:/Users/LC/STM32Cube/Repository/STM32Cube_FW_F4_V1.28.0/Drivers/STM32F4xx_HAL_Driver/Src\stm32f4xx_hal_pwr_ex.c ****   */
 370:C:/Users/LC/STM32Cube/Repository/STM32Cube_FW_F4_V1.28.0/Drivers/STM32F4xx_HAL_Driver/Src\stm32f4xx_hal_pwr_ex.c **** void HAL_PWREx_DisableMainRegulatorLowVoltage(void)
 371:C:/Users/LC/STM32Cube/Repository/STM32Cube_FW_F4_V1.28.0/Drivers/STM32F4xx_HAL_Driver/Src\stm32f4xx_hal_pwr_ex.c **** {
ARM GAS  C:\Users\LC\AppData\Local\Temp\cctO9Ld3.s 			page 15


 372:C:/Users/LC/STM32Cube/Repository/STM32Cube_FW_F4_V1.28.0/Drivers/STM32F4xx_HAL_Driver/Src\stm32f4xx_hal_pwr_ex.c ****   *(__IO uint32_t *) CR_MRLVDS_BB = (uint32_t)DISABLE;
 373:C:/Users/LC/STM32Cube/Repository/STM32Cube_FW_F4_V1.28.0/Drivers/STM32F4xx_HAL_Driver/Src\stm32f4xx_hal_pwr_ex.c **** }
 374:C:/Users/LC/STM32Cube/Repository/STM32Cube_FW_F4_V1.28.0/Drivers/STM32F4xx_HAL_Driver/Src\stm32f4xx_hal_pwr_ex.c **** 
 375:C:/Users/LC/STM32Cube/Repository/STM32Cube_FW_F4_V1.28.0/Drivers/STM32F4xx_HAL_Driver/Src\stm32f4xx_hal_pwr_ex.c **** /**
 376:C:/Users/LC/STM32Cube/Repository/STM32Cube_FW_F4_V1.28.0/Drivers/STM32F4xx_HAL_Driver/Src\stm32f4xx_hal_pwr_ex.c ****   * @brief Enables Low Power Regulator low voltage mode.
 377:C:/Users/LC/STM32Cube/Repository/STM32Cube_FW_F4_V1.28.0/Drivers/STM32F4xx_HAL_Driver/Src\stm32f4xx_hal_pwr_ex.c ****   * @note  This mode is only available for STM32F401xx/STM32F410xx/STM32F411xx/STM32F412Zx/STM32F41
 378:C:/Users/LC/STM32Cube/Repository/STM32Cube_FW_F4_V1.28.0/Drivers/STM32F4xx_HAL_Driver/Src\stm32f4xx_hal_pwr_ex.c ****   *        STM32F413xx/STM32F423xx devices.   
 379:C:/Users/LC/STM32Cube/Repository/STM32Cube_FW_F4_V1.28.0/Drivers/STM32F4xx_HAL_Driver/Src\stm32f4xx_hal_pwr_ex.c ****   * @retval None
 380:C:/Users/LC/STM32Cube/Repository/STM32Cube_FW_F4_V1.28.0/Drivers/STM32F4xx_HAL_Driver/Src\stm32f4xx_hal_pwr_ex.c ****   */
 381:C:/Users/LC/STM32Cube/Repository/STM32Cube_FW_F4_V1.28.0/Drivers/STM32F4xx_HAL_Driver/Src\stm32f4xx_hal_pwr_ex.c **** void HAL_PWREx_EnableLowRegulatorLowVoltage(void)
 382:C:/Users/LC/STM32Cube/Repository/STM32Cube_FW_F4_V1.28.0/Drivers/STM32F4xx_HAL_Driver/Src\stm32f4xx_hal_pwr_ex.c **** {
 383:C:/Users/LC/STM32Cube/Repository/STM32Cube_FW_F4_V1.28.0/Drivers/STM32F4xx_HAL_Driver/Src\stm32f4xx_hal_pwr_ex.c ****   *(__IO uint32_t *) CR_LPLVDS_BB = (uint32_t)ENABLE;
 384:C:/Users/LC/STM32Cube/Repository/STM32Cube_FW_F4_V1.28.0/Drivers/STM32F4xx_HAL_Driver/Src\stm32f4xx_hal_pwr_ex.c **** }
 385:C:/Users/LC/STM32Cube/Repository/STM32Cube_FW_F4_V1.28.0/Drivers/STM32F4xx_HAL_Driver/Src\stm32f4xx_hal_pwr_ex.c **** 
 386:C:/Users/LC/STM32Cube/Repository/STM32Cube_FW_F4_V1.28.0/Drivers/STM32F4xx_HAL_Driver/Src\stm32f4xx_hal_pwr_ex.c **** /**
 387:C:/Users/LC/STM32Cube/Repository/STM32Cube_FW_F4_V1.28.0/Drivers/STM32F4xx_HAL_Driver/Src\stm32f4xx_hal_pwr_ex.c ****   * @brief Disables Low Power Regulator low voltage mode.
 388:C:/Users/LC/STM32Cube/Repository/STM32Cube_FW_F4_V1.28.0/Drivers/STM32F4xx_HAL_Driver/Src\stm32f4xx_hal_pwr_ex.c ****   * @note  This mode is only available for STM32F401xx/STM32F410xx/STM32F411xx/STM32F412Zx/STM32F41
 389:C:/Users/LC/STM32Cube/Repository/STM32Cube_FW_F4_V1.28.0/Drivers/STM32F4xx_HAL_Driver/Src\stm32f4xx_hal_pwr_ex.c ****   *        STM32F413xx/STM32F423xx  devices.   
 390:C:/Users/LC/STM32Cube/Repository/STM32Cube_FW_F4_V1.28.0/Drivers/STM32F4xx_HAL_Driver/Src\stm32f4xx_hal_pwr_ex.c ****   * @retval None
 391:C:/Users/LC/STM32Cube/Repository/STM32Cube_FW_F4_V1.28.0/Drivers/STM32F4xx_HAL_Driver/Src\stm32f4xx_hal_pwr_ex.c ****   */
 392:C:/Users/LC/STM32Cube/Repository/STM32Cube_FW_F4_V1.28.0/Drivers/STM32F4xx_HAL_Driver/Src\stm32f4xx_hal_pwr_ex.c **** void HAL_PWREx_DisableLowRegulatorLowVoltage(void)
 393:C:/Users/LC/STM32Cube/Repository/STM32Cube_FW_F4_V1.28.0/Drivers/STM32F4xx_HAL_Driver/Src\stm32f4xx_hal_pwr_ex.c **** {
 394:C:/Users/LC/STM32Cube/Repository/STM32Cube_FW_F4_V1.28.0/Drivers/STM32F4xx_HAL_Driver/Src\stm32f4xx_hal_pwr_ex.c ****   *(__IO uint32_t *) CR_LPLVDS_BB = (uint32_t)DISABLE;
 395:C:/Users/LC/STM32Cube/Repository/STM32Cube_FW_F4_V1.28.0/Drivers/STM32F4xx_HAL_Driver/Src\stm32f4xx_hal_pwr_ex.c **** }
 396:C:/Users/LC/STM32Cube/Repository/STM32Cube_FW_F4_V1.28.0/Drivers/STM32F4xx_HAL_Driver/Src\stm32f4xx_hal_pwr_ex.c **** 
 397:C:/Users/LC/STM32Cube/Repository/STM32Cube_FW_F4_V1.28.0/Drivers/STM32F4xx_HAL_Driver/Src\stm32f4xx_hal_pwr_ex.c **** #endif /* STM32F401xC || STM32F401xE || STM32F410xx || STM32F411xE || STM32F412Zx || STM32F412Rx ||
 398:C:/Users/LC/STM32Cube/Repository/STM32Cube_FW_F4_V1.28.0/Drivers/STM32F4xx_HAL_Driver/Src\stm32f4xx_hal_pwr_ex.c ****           STM32F413xx || STM32F423xx */
 399:C:/Users/LC/STM32Cube/Repository/STM32Cube_FW_F4_V1.28.0/Drivers/STM32F4xx_HAL_Driver/Src\stm32f4xx_hal_pwr_ex.c **** 
 400:C:/Users/LC/STM32Cube/Repository/STM32Cube_FW_F4_V1.28.0/Drivers/STM32F4xx_HAL_Driver/Src\stm32f4xx_hal_pwr_ex.c **** #if defined(STM32F427xx) || defined(STM32F437xx) || defined(STM32F429xx) || defined(STM32F439xx) ||
 401:C:/Users/LC/STM32Cube/Repository/STM32Cube_FW_F4_V1.28.0/Drivers/STM32F4xx_HAL_Driver/Src\stm32f4xx_hal_pwr_ex.c ****     defined(STM32F446xx) || defined(STM32F469xx) || defined(STM32F479xx)
 402:C:/Users/LC/STM32Cube/Repository/STM32Cube_FW_F4_V1.28.0/Drivers/STM32F4xx_HAL_Driver/Src\stm32f4xx_hal_pwr_ex.c **** /**
 403:C:/Users/LC/STM32Cube/Repository/STM32Cube_FW_F4_V1.28.0/Drivers/STM32F4xx_HAL_Driver/Src\stm32f4xx_hal_pwr_ex.c ****   * @brief  Activates the Over-Drive mode.
 404:C:/Users/LC/STM32Cube/Repository/STM32Cube_FW_F4_V1.28.0/Drivers/STM32F4xx_HAL_Driver/Src\stm32f4xx_hal_pwr_ex.c ****   * @note   This function can be used only for STM32F42xx/STM32F43xx/STM32F446xx/STM32F469xx/STM32F
 405:C:/Users/LC/STM32Cube/Repository/STM32Cube_FW_F4_V1.28.0/Drivers/STM32F4xx_HAL_Driver/Src\stm32f4xx_hal_pwr_ex.c ****   *         This mode allows the CPU and the core logic to operate at a higher frequency
 406:C:/Users/LC/STM32Cube/Repository/STM32Cube_FW_F4_V1.28.0/Drivers/STM32F4xx_HAL_Driver/Src\stm32f4xx_hal_pwr_ex.c ****   *         than the normal mode for a given voltage scaling (scale 1, scale 2 or scale 3).   
 407:C:/Users/LC/STM32Cube/Repository/STM32Cube_FW_F4_V1.28.0/Drivers/STM32F4xx_HAL_Driver/Src\stm32f4xx_hal_pwr_ex.c ****   * @note   It is recommended to enter or exit Over-drive mode when the application is not running 
 408:C:/Users/LC/STM32Cube/Repository/STM32Cube_FW_F4_V1.28.0/Drivers/STM32F4xx_HAL_Driver/Src\stm32f4xx_hal_pwr_ex.c ****   *         critical tasks and when the system clock source is either HSI or HSE. 
 409:C:/Users/LC/STM32Cube/Repository/STM32Cube_FW_F4_V1.28.0/Drivers/STM32F4xx_HAL_Driver/Src\stm32f4xx_hal_pwr_ex.c ****   *         During the Over-drive switch activation, no peripheral clocks should be enabled.   
 410:C:/Users/LC/STM32Cube/Repository/STM32Cube_FW_F4_V1.28.0/Drivers/STM32F4xx_HAL_Driver/Src\stm32f4xx_hal_pwr_ex.c ****   *         The peripheral clocks must be enabled once the Over-drive mode is activated.   
 411:C:/Users/LC/STM32Cube/Repository/STM32Cube_FW_F4_V1.28.0/Drivers/STM32F4xx_HAL_Driver/Src\stm32f4xx_hal_pwr_ex.c ****   * @retval HAL status
 412:C:/Users/LC/STM32Cube/Repository/STM32Cube_FW_F4_V1.28.0/Drivers/STM32F4xx_HAL_Driver/Src\stm32f4xx_hal_pwr_ex.c ****   */
 413:C:/Users/LC/STM32Cube/Repository/STM32Cube_FW_F4_V1.28.0/Drivers/STM32F4xx_HAL_Driver/Src\stm32f4xx_hal_pwr_ex.c **** HAL_StatusTypeDef HAL_PWREx_EnableOverDrive(void)
 414:C:/Users/LC/STM32Cube/Repository/STM32Cube_FW_F4_V1.28.0/Drivers/STM32F4xx_HAL_Driver/Src\stm32f4xx_hal_pwr_ex.c **** {
 440              		.loc 1 414 1 is_stmt 1 view -0
 441              		.cfi_startproc
 442              		@ args = 0, pretend = 0, frame = 8
 443              		@ frame_needed = 0, uses_anonymous_args = 0
 444 0000 10B5     		push	{r4, lr}
 445              	.LCFI5:
 446              		.cfi_def_cfa_offset 8
 447              		.cfi_offset 4, -8
 448              		.cfi_offset 14, -4
 449 0002 82B0     		sub	sp, sp, #8
 450              	.LCFI6:
 451              		.cfi_def_cfa_offset 16
 415:C:/Users/LC/STM32Cube/Repository/STM32Cube_FW_F4_V1.28.0/Drivers/STM32F4xx_HAL_Driver/Src\stm32f4xx_hal_pwr_ex.c ****   uint32_t tickstart = 0U;
 452              		.loc 1 415 3 view .LVU108
ARM GAS  C:\Users\LC\AppData\Local\Temp\cctO9Ld3.s 			page 16


 453              	.LVL24:
 416:C:/Users/LC/STM32Cube/Repository/STM32Cube_FW_F4_V1.28.0/Drivers/STM32F4xx_HAL_Driver/Src\stm32f4xx_hal_pwr_ex.c **** 
 417:C:/Users/LC/STM32Cube/Repository/STM32Cube_FW_F4_V1.28.0/Drivers/STM32F4xx_HAL_Driver/Src\stm32f4xx_hal_pwr_ex.c ****   __HAL_RCC_PWR_CLK_ENABLE();
 454              		.loc 1 417 3 view .LVU109
 455              	.LBB4:
 456              		.loc 1 417 3 view .LVU110
 457 0004 0023     		movs	r3, #0
 458 0006 0193     		str	r3, [sp, #4]
 459              		.loc 1 417 3 view .LVU111
 460 0008 194B     		ldr	r3, .L57
 461 000a 1A6C     		ldr	r2, [r3, #64]
 462 000c 42F08052 		orr	r2, r2, #268435456
 463 0010 1A64     		str	r2, [r3, #64]
 464              		.loc 1 417 3 view .LVU112
 465 0012 1B6C     		ldr	r3, [r3, #64]
 466 0014 03F08053 		and	r3, r3, #268435456
 467 0018 0193     		str	r3, [sp, #4]
 468              		.loc 1 417 3 view .LVU113
 469 001a 019B     		ldr	r3, [sp, #4]
 470              	.LBE4:
 471              		.loc 1 417 3 view .LVU114
 418:C:/Users/LC/STM32Cube/Repository/STM32Cube_FW_F4_V1.28.0/Drivers/STM32F4xx_HAL_Driver/Src\stm32f4xx_hal_pwr_ex.c ****   
 419:C:/Users/LC/STM32Cube/Repository/STM32Cube_FW_F4_V1.28.0/Drivers/STM32F4xx_HAL_Driver/Src\stm32f4xx_hal_pwr_ex.c ****   /* Enable the Over-drive to extend the clock frequency to 180 Mhz */
 420:C:/Users/LC/STM32Cube/Repository/STM32Cube_FW_F4_V1.28.0/Drivers/STM32F4xx_HAL_Driver/Src\stm32f4xx_hal_pwr_ex.c ****   __HAL_PWR_OVERDRIVE_ENABLE();
 472              		.loc 1 420 3 view .LVU115
 473 001c 154B     		ldr	r3, .L57+4
 474 001e 0122     		movs	r2, #1
 475 0020 1A64     		str	r2, [r3, #64]
 421:C:/Users/LC/STM32Cube/Repository/STM32Cube_FW_F4_V1.28.0/Drivers/STM32F4xx_HAL_Driver/Src\stm32f4xx_hal_pwr_ex.c **** 
 422:C:/Users/LC/STM32Cube/Repository/STM32Cube_FW_F4_V1.28.0/Drivers/STM32F4xx_HAL_Driver/Src\stm32f4xx_hal_pwr_ex.c ****   /* Get tick */
 423:C:/Users/LC/STM32Cube/Repository/STM32Cube_FW_F4_V1.28.0/Drivers/STM32F4xx_HAL_Driver/Src\stm32f4xx_hal_pwr_ex.c ****   tickstart = HAL_GetTick();
 476              		.loc 1 423 3 view .LVU116
 477              		.loc 1 423 15 is_stmt 0 view .LVU117
 478 0022 FFF7FEFF 		bl	HAL_GetTick
 479              	.LVL25:
 480 0026 0446     		mov	r4, r0
 481              	.LVL26:
 424:C:/Users/LC/STM32Cube/Repository/STM32Cube_FW_F4_V1.28.0/Drivers/STM32F4xx_HAL_Driver/Src\stm32f4xx_hal_pwr_ex.c **** 
 425:C:/Users/LC/STM32Cube/Repository/STM32Cube_FW_F4_V1.28.0/Drivers/STM32F4xx_HAL_Driver/Src\stm32f4xx_hal_pwr_ex.c ****   while(!__HAL_PWR_GET_FLAG(PWR_FLAG_ODRDY))
 482              		.loc 1 425 3 is_stmt 1 view .LVU118
 483              	.L47:
 484              		.loc 1 425 8 view .LVU119
 485              		.loc 1 425 10 is_stmt 0 view .LVU120
 486 0028 134B     		ldr	r3, .L57+8
 487 002a 5B68     		ldr	r3, [r3, #4]
 488              		.loc 1 425 8 view .LVU121
 489 002c 13F4803F 		tst	r3, #65536
 490 0030 08D1     		bne	.L55
 426:C:/Users/LC/STM32Cube/Repository/STM32Cube_FW_F4_V1.28.0/Drivers/STM32F4xx_HAL_Driver/Src\stm32f4xx_hal_pwr_ex.c ****   {
 427:C:/Users/LC/STM32Cube/Repository/STM32Cube_FW_F4_V1.28.0/Drivers/STM32F4xx_HAL_Driver/Src\stm32f4xx_hal_pwr_ex.c ****     if((HAL_GetTick() - tickstart) > PWR_OVERDRIVE_TIMEOUT_VALUE)
 491              		.loc 1 427 5 is_stmt 1 view .LVU122
 492              		.loc 1 427 9 is_stmt 0 view .LVU123
 493 0032 FFF7FEFF 		bl	HAL_GetTick
 494              	.LVL27:
 495              		.loc 1 427 23 view .LVU124
 496 0036 001B     		subs	r0, r0, r4
 497              		.loc 1 427 7 view .LVU125
ARM GAS  C:\Users\LC\AppData\Local\Temp\cctO9Ld3.s 			page 17


 498 0038 B0F57A7F 		cmp	r0, #1000
 499 003c F4D9     		bls	.L47
 428:C:/Users/LC/STM32Cube/Repository/STM32Cube_FW_F4_V1.28.0/Drivers/STM32F4xx_HAL_Driver/Src\stm32f4xx_hal_pwr_ex.c ****     {
 429:C:/Users/LC/STM32Cube/Repository/STM32Cube_FW_F4_V1.28.0/Drivers/STM32F4xx_HAL_Driver/Src\stm32f4xx_hal_pwr_ex.c ****       return HAL_TIMEOUT;
 500              		.loc 1 429 14 view .LVU126
 501 003e 0320     		movs	r0, #3
 502              	.L48:
 430:C:/Users/LC/STM32Cube/Repository/STM32Cube_FW_F4_V1.28.0/Drivers/STM32F4xx_HAL_Driver/Src\stm32f4xx_hal_pwr_ex.c ****     }
 431:C:/Users/LC/STM32Cube/Repository/STM32Cube_FW_F4_V1.28.0/Drivers/STM32F4xx_HAL_Driver/Src\stm32f4xx_hal_pwr_ex.c ****   }
 432:C:/Users/LC/STM32Cube/Repository/STM32Cube_FW_F4_V1.28.0/Drivers/STM32F4xx_HAL_Driver/Src\stm32f4xx_hal_pwr_ex.c ****   
 433:C:/Users/LC/STM32Cube/Repository/STM32Cube_FW_F4_V1.28.0/Drivers/STM32F4xx_HAL_Driver/Src\stm32f4xx_hal_pwr_ex.c ****   /* Enable the Over-drive switch */
 434:C:/Users/LC/STM32Cube/Repository/STM32Cube_FW_F4_V1.28.0/Drivers/STM32F4xx_HAL_Driver/Src\stm32f4xx_hal_pwr_ex.c ****   __HAL_PWR_OVERDRIVESWITCHING_ENABLE();
 435:C:/Users/LC/STM32Cube/Repository/STM32Cube_FW_F4_V1.28.0/Drivers/STM32F4xx_HAL_Driver/Src\stm32f4xx_hal_pwr_ex.c **** 
 436:C:/Users/LC/STM32Cube/Repository/STM32Cube_FW_F4_V1.28.0/Drivers/STM32F4xx_HAL_Driver/Src\stm32f4xx_hal_pwr_ex.c ****   /* Get tick */
 437:C:/Users/LC/STM32Cube/Repository/STM32Cube_FW_F4_V1.28.0/Drivers/STM32F4xx_HAL_Driver/Src\stm32f4xx_hal_pwr_ex.c ****   tickstart = HAL_GetTick();
 438:C:/Users/LC/STM32Cube/Repository/STM32Cube_FW_F4_V1.28.0/Drivers/STM32F4xx_HAL_Driver/Src\stm32f4xx_hal_pwr_ex.c **** 
 439:C:/Users/LC/STM32Cube/Repository/STM32Cube_FW_F4_V1.28.0/Drivers/STM32F4xx_HAL_Driver/Src\stm32f4xx_hal_pwr_ex.c ****   while(!__HAL_PWR_GET_FLAG(PWR_FLAG_ODSWRDY))
 440:C:/Users/LC/STM32Cube/Repository/STM32Cube_FW_F4_V1.28.0/Drivers/STM32F4xx_HAL_Driver/Src\stm32f4xx_hal_pwr_ex.c ****   {
 441:C:/Users/LC/STM32Cube/Repository/STM32Cube_FW_F4_V1.28.0/Drivers/STM32F4xx_HAL_Driver/Src\stm32f4xx_hal_pwr_ex.c ****     if((HAL_GetTick() - tickstart ) > PWR_OVERDRIVE_TIMEOUT_VALUE)
 442:C:/Users/LC/STM32Cube/Repository/STM32Cube_FW_F4_V1.28.0/Drivers/STM32F4xx_HAL_Driver/Src\stm32f4xx_hal_pwr_ex.c ****     {
 443:C:/Users/LC/STM32Cube/Repository/STM32Cube_FW_F4_V1.28.0/Drivers/STM32F4xx_HAL_Driver/Src\stm32f4xx_hal_pwr_ex.c ****       return HAL_TIMEOUT;
 444:C:/Users/LC/STM32Cube/Repository/STM32Cube_FW_F4_V1.28.0/Drivers/STM32F4xx_HAL_Driver/Src\stm32f4xx_hal_pwr_ex.c ****     }
 445:C:/Users/LC/STM32Cube/Repository/STM32Cube_FW_F4_V1.28.0/Drivers/STM32F4xx_HAL_Driver/Src\stm32f4xx_hal_pwr_ex.c ****   } 
 446:C:/Users/LC/STM32Cube/Repository/STM32Cube_FW_F4_V1.28.0/Drivers/STM32F4xx_HAL_Driver/Src\stm32f4xx_hal_pwr_ex.c ****   return HAL_OK;
 447:C:/Users/LC/STM32Cube/Repository/STM32Cube_FW_F4_V1.28.0/Drivers/STM32F4xx_HAL_Driver/Src\stm32f4xx_hal_pwr_ex.c **** }
 503              		.loc 1 447 1 view .LVU127
 504 0040 02B0     		add	sp, sp, #8
 505              	.LCFI7:
 506              		.cfi_remember_state
 507              		.cfi_def_cfa_offset 8
 508              		@ sp needed
 509 0042 10BD     		pop	{r4, pc}
 510              	.LVL28:
 511              	.L55:
 512              	.LCFI8:
 513              		.cfi_restore_state
 434:C:/Users/LC/STM32Cube/Repository/STM32Cube_FW_F4_V1.28.0/Drivers/STM32F4xx_HAL_Driver/Src\stm32f4xx_hal_pwr_ex.c **** 
 514              		.loc 1 434 3 is_stmt 1 view .LVU128
 515 0044 0B4B     		ldr	r3, .L57+4
 516 0046 0122     		movs	r2, #1
 517 0048 5A64     		str	r2, [r3, #68]
 437:C:/Users/LC/STM32Cube/Repository/STM32Cube_FW_F4_V1.28.0/Drivers/STM32F4xx_HAL_Driver/Src\stm32f4xx_hal_pwr_ex.c **** 
 518              		.loc 1 437 3 view .LVU129
 437:C:/Users/LC/STM32Cube/Repository/STM32Cube_FW_F4_V1.28.0/Drivers/STM32F4xx_HAL_Driver/Src\stm32f4xx_hal_pwr_ex.c **** 
 519              		.loc 1 437 15 is_stmt 0 view .LVU130
 520 004a FFF7FEFF 		bl	HAL_GetTick
 521              	.LVL29:
 522 004e 0446     		mov	r4, r0
 523              	.LVL30:
 439:C:/Users/LC/STM32Cube/Repository/STM32Cube_FW_F4_V1.28.0/Drivers/STM32F4xx_HAL_Driver/Src\stm32f4xx_hal_pwr_ex.c ****   {
 524              		.loc 1 439 3 is_stmt 1 view .LVU131
 525              	.L50:
 439:C:/Users/LC/STM32Cube/Repository/STM32Cube_FW_F4_V1.28.0/Drivers/STM32F4xx_HAL_Driver/Src\stm32f4xx_hal_pwr_ex.c ****   {
 526              		.loc 1 439 8 view .LVU132
 439:C:/Users/LC/STM32Cube/Repository/STM32Cube_FW_F4_V1.28.0/Drivers/STM32F4xx_HAL_Driver/Src\stm32f4xx_hal_pwr_ex.c ****   {
 527              		.loc 1 439 10 is_stmt 0 view .LVU133
 528 0050 094B     		ldr	r3, .L57+8
ARM GAS  C:\Users\LC\AppData\Local\Temp\cctO9Ld3.s 			page 18


 529 0052 5B68     		ldr	r3, [r3, #4]
 439:C:/Users/LC/STM32Cube/Repository/STM32Cube_FW_F4_V1.28.0/Drivers/STM32F4xx_HAL_Driver/Src\stm32f4xx_hal_pwr_ex.c ****   {
 530              		.loc 1 439 8 view .LVU134
 531 0054 13F4003F 		tst	r3, #131072
 532 0058 07D1     		bne	.L56
 441:C:/Users/LC/STM32Cube/Repository/STM32Cube_FW_F4_V1.28.0/Drivers/STM32F4xx_HAL_Driver/Src\stm32f4xx_hal_pwr_ex.c ****     {
 533              		.loc 1 441 5 is_stmt 1 view .LVU135
 441:C:/Users/LC/STM32Cube/Repository/STM32Cube_FW_F4_V1.28.0/Drivers/STM32F4xx_HAL_Driver/Src\stm32f4xx_hal_pwr_ex.c ****     {
 534              		.loc 1 441 9 is_stmt 0 view .LVU136
 535 005a FFF7FEFF 		bl	HAL_GetTick
 536              	.LVL31:
 441:C:/Users/LC/STM32Cube/Repository/STM32Cube_FW_F4_V1.28.0/Drivers/STM32F4xx_HAL_Driver/Src\stm32f4xx_hal_pwr_ex.c ****     {
 537              		.loc 1 441 23 view .LVU137
 538 005e 001B     		subs	r0, r0, r4
 441:C:/Users/LC/STM32Cube/Repository/STM32Cube_FW_F4_V1.28.0/Drivers/STM32F4xx_HAL_Driver/Src\stm32f4xx_hal_pwr_ex.c ****     {
 539              		.loc 1 441 7 view .LVU138
 540 0060 B0F57A7F 		cmp	r0, #1000
 541 0064 F4D9     		bls	.L50
 443:C:/Users/LC/STM32Cube/Repository/STM32Cube_FW_F4_V1.28.0/Drivers/STM32F4xx_HAL_Driver/Src\stm32f4xx_hal_pwr_ex.c ****     }
 542              		.loc 1 443 14 view .LVU139
 543 0066 0320     		movs	r0, #3
 544 0068 EAE7     		b	.L48
 545              	.L56:
 446:C:/Users/LC/STM32Cube/Repository/STM32Cube_FW_F4_V1.28.0/Drivers/STM32F4xx_HAL_Driver/Src\stm32f4xx_hal_pwr_ex.c **** }
 546              		.loc 1 446 10 view .LVU140
 547 006a 0020     		movs	r0, #0
 548 006c E8E7     		b	.L48
 549              	.L58:
 550 006e 00BF     		.align	2
 551              	.L57:
 552 0070 00380240 		.word	1073887232
 553 0074 00000E42 		.word	1108213760
 554 0078 00700040 		.word	1073770496
 555              		.cfi_endproc
 556              	.LFE140:
 558              		.section	.text.HAL_PWREx_DisableOverDrive,"ax",%progbits
 559              		.align	1
 560              		.global	HAL_PWREx_DisableOverDrive
 561              		.syntax unified
 562              		.thumb
 563              		.thumb_func
 565              	HAL_PWREx_DisableOverDrive:
 566              	.LFB141:
 448:C:/Users/LC/STM32Cube/Repository/STM32Cube_FW_F4_V1.28.0/Drivers/STM32F4xx_HAL_Driver/Src\stm32f4xx_hal_pwr_ex.c **** 
 449:C:/Users/LC/STM32Cube/Repository/STM32Cube_FW_F4_V1.28.0/Drivers/STM32F4xx_HAL_Driver/Src\stm32f4xx_hal_pwr_ex.c **** /**
 450:C:/Users/LC/STM32Cube/Repository/STM32Cube_FW_F4_V1.28.0/Drivers/STM32F4xx_HAL_Driver/Src\stm32f4xx_hal_pwr_ex.c ****   * @brief  Deactivates the Over-Drive mode.
 451:C:/Users/LC/STM32Cube/Repository/STM32Cube_FW_F4_V1.28.0/Drivers/STM32F4xx_HAL_Driver/Src\stm32f4xx_hal_pwr_ex.c ****   * @note   This function can be used only for STM32F42xx/STM32F43xx/STM32F446xx/STM32F469xx/STM32F
 452:C:/Users/LC/STM32Cube/Repository/STM32Cube_FW_F4_V1.28.0/Drivers/STM32F4xx_HAL_Driver/Src\stm32f4xx_hal_pwr_ex.c ****   *         This mode allows the CPU and the core logic to operate at a higher frequency
 453:C:/Users/LC/STM32Cube/Repository/STM32Cube_FW_F4_V1.28.0/Drivers/STM32F4xx_HAL_Driver/Src\stm32f4xx_hal_pwr_ex.c ****   *         than the normal mode for a given voltage scaling (scale 1, scale 2 or scale 3).    
 454:C:/Users/LC/STM32Cube/Repository/STM32Cube_FW_F4_V1.28.0/Drivers/STM32F4xx_HAL_Driver/Src\stm32f4xx_hal_pwr_ex.c ****   * @note   It is recommended to enter or exit Over-drive mode when the application is not running 
 455:C:/Users/LC/STM32Cube/Repository/STM32Cube_FW_F4_V1.28.0/Drivers/STM32F4xx_HAL_Driver/Src\stm32f4xx_hal_pwr_ex.c ****   *         critical tasks and when the system clock source is either HSI or HSE. 
 456:C:/Users/LC/STM32Cube/Repository/STM32Cube_FW_F4_V1.28.0/Drivers/STM32F4xx_HAL_Driver/Src\stm32f4xx_hal_pwr_ex.c ****   *         During the Over-drive switch activation, no peripheral clocks should be enabled.   
 457:C:/Users/LC/STM32Cube/Repository/STM32Cube_FW_F4_V1.28.0/Drivers/STM32F4xx_HAL_Driver/Src\stm32f4xx_hal_pwr_ex.c ****   *         The peripheral clocks must be enabled once the Over-drive mode is activated.
 458:C:/Users/LC/STM32Cube/Repository/STM32Cube_FW_F4_V1.28.0/Drivers/STM32F4xx_HAL_Driver/Src\stm32f4xx_hal_pwr_ex.c ****   * @retval HAL status
 459:C:/Users/LC/STM32Cube/Repository/STM32Cube_FW_F4_V1.28.0/Drivers/STM32F4xx_HAL_Driver/Src\stm32f4xx_hal_pwr_ex.c ****   */
 460:C:/Users/LC/STM32Cube/Repository/STM32Cube_FW_F4_V1.28.0/Drivers/STM32F4xx_HAL_Driver/Src\stm32f4xx_hal_pwr_ex.c **** HAL_StatusTypeDef HAL_PWREx_DisableOverDrive(void)
 461:C:/Users/LC/STM32Cube/Repository/STM32Cube_FW_F4_V1.28.0/Drivers/STM32F4xx_HAL_Driver/Src\stm32f4xx_hal_pwr_ex.c **** {
ARM GAS  C:\Users\LC\AppData\Local\Temp\cctO9Ld3.s 			page 19


 567              		.loc 1 461 1 is_stmt 1 view -0
 568              		.cfi_startproc
 569              		@ args = 0, pretend = 0, frame = 8
 570              		@ frame_needed = 0, uses_anonymous_args = 0
 571 0000 10B5     		push	{r4, lr}
 572              	.LCFI9:
 573              		.cfi_def_cfa_offset 8
 574              		.cfi_offset 4, -8
 575              		.cfi_offset 14, -4
 576 0002 82B0     		sub	sp, sp, #8
 577              	.LCFI10:
 578              		.cfi_def_cfa_offset 16
 462:C:/Users/LC/STM32Cube/Repository/STM32Cube_FW_F4_V1.28.0/Drivers/STM32F4xx_HAL_Driver/Src\stm32f4xx_hal_pwr_ex.c ****   uint32_t tickstart = 0U;
 579              		.loc 1 462 3 view .LVU142
 580              	.LVL32:
 463:C:/Users/LC/STM32Cube/Repository/STM32Cube_FW_F4_V1.28.0/Drivers/STM32F4xx_HAL_Driver/Src\stm32f4xx_hal_pwr_ex.c ****   
 464:C:/Users/LC/STM32Cube/Repository/STM32Cube_FW_F4_V1.28.0/Drivers/STM32F4xx_HAL_Driver/Src\stm32f4xx_hal_pwr_ex.c ****   __HAL_RCC_PWR_CLK_ENABLE();
 581              		.loc 1 464 3 view .LVU143
 582              	.LBB5:
 583              		.loc 1 464 3 view .LVU144
 584 0004 0021     		movs	r1, #0
 585 0006 0191     		str	r1, [sp, #4]
 586              		.loc 1 464 3 view .LVU145
 587 0008 184B     		ldr	r3, .L70
 588 000a 1A6C     		ldr	r2, [r3, #64]
 589 000c 42F08052 		orr	r2, r2, #268435456
 590 0010 1A64     		str	r2, [r3, #64]
 591              		.loc 1 464 3 view .LVU146
 592 0012 1B6C     		ldr	r3, [r3, #64]
 593 0014 03F08053 		and	r3, r3, #268435456
 594 0018 0193     		str	r3, [sp, #4]
 595              		.loc 1 464 3 view .LVU147
 596 001a 019B     		ldr	r3, [sp, #4]
 597              	.LBE5:
 598              		.loc 1 464 3 view .LVU148
 465:C:/Users/LC/STM32Cube/Repository/STM32Cube_FW_F4_V1.28.0/Drivers/STM32F4xx_HAL_Driver/Src\stm32f4xx_hal_pwr_ex.c ****     
 466:C:/Users/LC/STM32Cube/Repository/STM32Cube_FW_F4_V1.28.0/Drivers/STM32F4xx_HAL_Driver/Src\stm32f4xx_hal_pwr_ex.c ****   /* Disable the Over-drive switch */
 467:C:/Users/LC/STM32Cube/Repository/STM32Cube_FW_F4_V1.28.0/Drivers/STM32F4xx_HAL_Driver/Src\stm32f4xx_hal_pwr_ex.c ****   __HAL_PWR_OVERDRIVESWITCHING_DISABLE();
 599              		.loc 1 467 3 view .LVU149
 600 001c 144B     		ldr	r3, .L70+4
 601 001e 5964     		str	r1, [r3, #68]
 468:C:/Users/LC/STM32Cube/Repository/STM32Cube_FW_F4_V1.28.0/Drivers/STM32F4xx_HAL_Driver/Src\stm32f4xx_hal_pwr_ex.c ****   
 469:C:/Users/LC/STM32Cube/Repository/STM32Cube_FW_F4_V1.28.0/Drivers/STM32F4xx_HAL_Driver/Src\stm32f4xx_hal_pwr_ex.c ****   /* Get tick */
 470:C:/Users/LC/STM32Cube/Repository/STM32Cube_FW_F4_V1.28.0/Drivers/STM32F4xx_HAL_Driver/Src\stm32f4xx_hal_pwr_ex.c ****   tickstart = HAL_GetTick();
 602              		.loc 1 470 3 view .LVU150
 603              		.loc 1 470 15 is_stmt 0 view .LVU151
 604 0020 FFF7FEFF 		bl	HAL_GetTick
 605              	.LVL33:
 606 0024 0446     		mov	r4, r0
 607              	.LVL34:
 471:C:/Users/LC/STM32Cube/Repository/STM32Cube_FW_F4_V1.28.0/Drivers/STM32F4xx_HAL_Driver/Src\stm32f4xx_hal_pwr_ex.c ****  
 472:C:/Users/LC/STM32Cube/Repository/STM32Cube_FW_F4_V1.28.0/Drivers/STM32F4xx_HAL_Driver/Src\stm32f4xx_hal_pwr_ex.c ****   while(__HAL_PWR_GET_FLAG(PWR_FLAG_ODSWRDY))
 608              		.loc 1 472 3 is_stmt 1 view .LVU152
 609              	.L60:
 610              		.loc 1 472 8 view .LVU153
 611              		.loc 1 472 9 is_stmt 0 view .LVU154
 612 0026 134B     		ldr	r3, .L70+8
ARM GAS  C:\Users\LC\AppData\Local\Temp\cctO9Ld3.s 			page 20


 613 0028 5B68     		ldr	r3, [r3, #4]
 614              		.loc 1 472 8 view .LVU155
 615 002a 13F4003F 		tst	r3, #131072
 616 002e 08D0     		beq	.L68
 473:C:/Users/LC/STM32Cube/Repository/STM32Cube_FW_F4_V1.28.0/Drivers/STM32F4xx_HAL_Driver/Src\stm32f4xx_hal_pwr_ex.c ****   {
 474:C:/Users/LC/STM32Cube/Repository/STM32Cube_FW_F4_V1.28.0/Drivers/STM32F4xx_HAL_Driver/Src\stm32f4xx_hal_pwr_ex.c ****     if((HAL_GetTick() - tickstart) > PWR_OVERDRIVE_TIMEOUT_VALUE)
 617              		.loc 1 474 5 is_stmt 1 view .LVU156
 618              		.loc 1 474 9 is_stmt 0 view .LVU157
 619 0030 FFF7FEFF 		bl	HAL_GetTick
 620              	.LVL35:
 621              		.loc 1 474 23 view .LVU158
 622 0034 001B     		subs	r0, r0, r4
 623              		.loc 1 474 7 view .LVU159
 624 0036 B0F57A7F 		cmp	r0, #1000
 625 003a F4D9     		bls	.L60
 475:C:/Users/LC/STM32Cube/Repository/STM32Cube_FW_F4_V1.28.0/Drivers/STM32F4xx_HAL_Driver/Src\stm32f4xx_hal_pwr_ex.c ****     {
 476:C:/Users/LC/STM32Cube/Repository/STM32Cube_FW_F4_V1.28.0/Drivers/STM32F4xx_HAL_Driver/Src\stm32f4xx_hal_pwr_ex.c ****       return HAL_TIMEOUT;
 626              		.loc 1 476 14 view .LVU160
 627 003c 0320     		movs	r0, #3
 628              	.L61:
 477:C:/Users/LC/STM32Cube/Repository/STM32Cube_FW_F4_V1.28.0/Drivers/STM32F4xx_HAL_Driver/Src\stm32f4xx_hal_pwr_ex.c ****     }
 478:C:/Users/LC/STM32Cube/Repository/STM32Cube_FW_F4_V1.28.0/Drivers/STM32F4xx_HAL_Driver/Src\stm32f4xx_hal_pwr_ex.c ****   } 
 479:C:/Users/LC/STM32Cube/Repository/STM32Cube_FW_F4_V1.28.0/Drivers/STM32F4xx_HAL_Driver/Src\stm32f4xx_hal_pwr_ex.c ****   
 480:C:/Users/LC/STM32Cube/Repository/STM32Cube_FW_F4_V1.28.0/Drivers/STM32F4xx_HAL_Driver/Src\stm32f4xx_hal_pwr_ex.c ****   /* Disable the Over-drive */
 481:C:/Users/LC/STM32Cube/Repository/STM32Cube_FW_F4_V1.28.0/Drivers/STM32F4xx_HAL_Driver/Src\stm32f4xx_hal_pwr_ex.c ****   __HAL_PWR_OVERDRIVE_DISABLE();
 482:C:/Users/LC/STM32Cube/Repository/STM32Cube_FW_F4_V1.28.0/Drivers/STM32F4xx_HAL_Driver/Src\stm32f4xx_hal_pwr_ex.c **** 
 483:C:/Users/LC/STM32Cube/Repository/STM32Cube_FW_F4_V1.28.0/Drivers/STM32F4xx_HAL_Driver/Src\stm32f4xx_hal_pwr_ex.c ****   /* Get tick */
 484:C:/Users/LC/STM32Cube/Repository/STM32Cube_FW_F4_V1.28.0/Drivers/STM32F4xx_HAL_Driver/Src\stm32f4xx_hal_pwr_ex.c ****   tickstart = HAL_GetTick();
 485:C:/Users/LC/STM32Cube/Repository/STM32Cube_FW_F4_V1.28.0/Drivers/STM32F4xx_HAL_Driver/Src\stm32f4xx_hal_pwr_ex.c **** 
 486:C:/Users/LC/STM32Cube/Repository/STM32Cube_FW_F4_V1.28.0/Drivers/STM32F4xx_HAL_Driver/Src\stm32f4xx_hal_pwr_ex.c ****   while(__HAL_PWR_GET_FLAG(PWR_FLAG_ODRDY))
 487:C:/Users/LC/STM32Cube/Repository/STM32Cube_FW_F4_V1.28.0/Drivers/STM32F4xx_HAL_Driver/Src\stm32f4xx_hal_pwr_ex.c ****   {
 488:C:/Users/LC/STM32Cube/Repository/STM32Cube_FW_F4_V1.28.0/Drivers/STM32F4xx_HAL_Driver/Src\stm32f4xx_hal_pwr_ex.c ****     if((HAL_GetTick() - tickstart) > PWR_OVERDRIVE_TIMEOUT_VALUE)
 489:C:/Users/LC/STM32Cube/Repository/STM32Cube_FW_F4_V1.28.0/Drivers/STM32F4xx_HAL_Driver/Src\stm32f4xx_hal_pwr_ex.c ****     {
 490:C:/Users/LC/STM32Cube/Repository/STM32Cube_FW_F4_V1.28.0/Drivers/STM32F4xx_HAL_Driver/Src\stm32f4xx_hal_pwr_ex.c ****       return HAL_TIMEOUT;
 491:C:/Users/LC/STM32Cube/Repository/STM32Cube_FW_F4_V1.28.0/Drivers/STM32F4xx_HAL_Driver/Src\stm32f4xx_hal_pwr_ex.c ****     }
 492:C:/Users/LC/STM32Cube/Repository/STM32Cube_FW_F4_V1.28.0/Drivers/STM32F4xx_HAL_Driver/Src\stm32f4xx_hal_pwr_ex.c ****   }
 493:C:/Users/LC/STM32Cube/Repository/STM32Cube_FW_F4_V1.28.0/Drivers/STM32F4xx_HAL_Driver/Src\stm32f4xx_hal_pwr_ex.c ****   
 494:C:/Users/LC/STM32Cube/Repository/STM32Cube_FW_F4_V1.28.0/Drivers/STM32F4xx_HAL_Driver/Src\stm32f4xx_hal_pwr_ex.c ****   return HAL_OK;
 495:C:/Users/LC/STM32Cube/Repository/STM32Cube_FW_F4_V1.28.0/Drivers/STM32F4xx_HAL_Driver/Src\stm32f4xx_hal_pwr_ex.c **** }
 629              		.loc 1 495 1 view .LVU161
 630 003e 02B0     		add	sp, sp, #8
 631              	.LCFI11:
 632              		.cfi_remember_state
 633              		.cfi_def_cfa_offset 8
 634              		@ sp needed
 635 0040 10BD     		pop	{r4, pc}
 636              	.LVL36:
 637              	.L68:
 638              	.LCFI12:
 639              		.cfi_restore_state
 481:C:/Users/LC/STM32Cube/Repository/STM32Cube_FW_F4_V1.28.0/Drivers/STM32F4xx_HAL_Driver/Src\stm32f4xx_hal_pwr_ex.c **** 
 640              		.loc 1 481 3 is_stmt 1 view .LVU162
 641 0042 0B4B     		ldr	r3, .L70+4
 642 0044 0022     		movs	r2, #0
 643 0046 1A64     		str	r2, [r3, #64]
 484:C:/Users/LC/STM32Cube/Repository/STM32Cube_FW_F4_V1.28.0/Drivers/STM32F4xx_HAL_Driver/Src\stm32f4xx_hal_pwr_ex.c **** 
 644              		.loc 1 484 3 view .LVU163
ARM GAS  C:\Users\LC\AppData\Local\Temp\cctO9Ld3.s 			page 21


 484:C:/Users/LC/STM32Cube/Repository/STM32Cube_FW_F4_V1.28.0/Drivers/STM32F4xx_HAL_Driver/Src\stm32f4xx_hal_pwr_ex.c **** 
 645              		.loc 1 484 15 is_stmt 0 view .LVU164
 646 0048 FFF7FEFF 		bl	HAL_GetTick
 647              	.LVL37:
 648 004c 0446     		mov	r4, r0
 649              	.LVL38:
 486:C:/Users/LC/STM32Cube/Repository/STM32Cube_FW_F4_V1.28.0/Drivers/STM32F4xx_HAL_Driver/Src\stm32f4xx_hal_pwr_ex.c ****   {
 650              		.loc 1 486 3 is_stmt 1 view .LVU165
 651              	.L63:
 486:C:/Users/LC/STM32Cube/Repository/STM32Cube_FW_F4_V1.28.0/Drivers/STM32F4xx_HAL_Driver/Src\stm32f4xx_hal_pwr_ex.c ****   {
 652              		.loc 1 486 8 view .LVU166
 486:C:/Users/LC/STM32Cube/Repository/STM32Cube_FW_F4_V1.28.0/Drivers/STM32F4xx_HAL_Driver/Src\stm32f4xx_hal_pwr_ex.c ****   {
 653              		.loc 1 486 9 is_stmt 0 view .LVU167
 654 004e 094B     		ldr	r3, .L70+8
 655 0050 5B68     		ldr	r3, [r3, #4]
 486:C:/Users/LC/STM32Cube/Repository/STM32Cube_FW_F4_V1.28.0/Drivers/STM32F4xx_HAL_Driver/Src\stm32f4xx_hal_pwr_ex.c ****   {
 656              		.loc 1 486 8 view .LVU168
 657 0052 13F4803F 		tst	r3, #65536
 658 0056 07D0     		beq	.L69
 488:C:/Users/LC/STM32Cube/Repository/STM32Cube_FW_F4_V1.28.0/Drivers/STM32F4xx_HAL_Driver/Src\stm32f4xx_hal_pwr_ex.c ****     {
 659              		.loc 1 488 5 is_stmt 1 view .LVU169
 488:C:/Users/LC/STM32Cube/Repository/STM32Cube_FW_F4_V1.28.0/Drivers/STM32F4xx_HAL_Driver/Src\stm32f4xx_hal_pwr_ex.c ****     {
 660              		.loc 1 488 9 is_stmt 0 view .LVU170
 661 0058 FFF7FEFF 		bl	HAL_GetTick
 662              	.LVL39:
 488:C:/Users/LC/STM32Cube/Repository/STM32Cube_FW_F4_V1.28.0/Drivers/STM32F4xx_HAL_Driver/Src\stm32f4xx_hal_pwr_ex.c ****     {
 663              		.loc 1 488 23 view .LVU171
 664 005c 001B     		subs	r0, r0, r4
 488:C:/Users/LC/STM32Cube/Repository/STM32Cube_FW_F4_V1.28.0/Drivers/STM32F4xx_HAL_Driver/Src\stm32f4xx_hal_pwr_ex.c ****     {
 665              		.loc 1 488 7 view .LVU172
 666 005e B0F57A7F 		cmp	r0, #1000
 667 0062 F4D9     		bls	.L63
 490:C:/Users/LC/STM32Cube/Repository/STM32Cube_FW_F4_V1.28.0/Drivers/STM32F4xx_HAL_Driver/Src\stm32f4xx_hal_pwr_ex.c ****     }
 668              		.loc 1 490 14 view .LVU173
 669 0064 0320     		movs	r0, #3
 670 0066 EAE7     		b	.L61
 671              	.L69:
 494:C:/Users/LC/STM32Cube/Repository/STM32Cube_FW_F4_V1.28.0/Drivers/STM32F4xx_HAL_Driver/Src\stm32f4xx_hal_pwr_ex.c **** }
 672              		.loc 1 494 10 view .LVU174
 673 0068 0020     		movs	r0, #0
 674 006a E8E7     		b	.L61
 675              	.L71:
 676              		.align	2
 677              	.L70:
 678 006c 00380240 		.word	1073887232
 679 0070 00000E42 		.word	1108213760
 680 0074 00700040 		.word	1073770496
 681              		.cfi_endproc
 682              	.LFE141:
 684              		.section	.text.HAL_PWREx_EnterUnderDriveSTOPMode,"ax",%progbits
 685              		.align	1
 686              		.global	HAL_PWREx_EnterUnderDriveSTOPMode
 687              		.syntax unified
 688              		.thumb
 689              		.thumb_func
 691              	HAL_PWREx_EnterUnderDriveSTOPMode:
 692              	.LVL40:
ARM GAS  C:\Users\LC\AppData\Local\Temp\cctO9Ld3.s 			page 22


 693              	.LFB142:
 496:C:/Users/LC/STM32Cube/Repository/STM32Cube_FW_F4_V1.28.0/Drivers/STM32F4xx_HAL_Driver/Src\stm32f4xx_hal_pwr_ex.c **** 
 497:C:/Users/LC/STM32Cube/Repository/STM32Cube_FW_F4_V1.28.0/Drivers/STM32F4xx_HAL_Driver/Src\stm32f4xx_hal_pwr_ex.c **** /**
 498:C:/Users/LC/STM32Cube/Repository/STM32Cube_FW_F4_V1.28.0/Drivers/STM32F4xx_HAL_Driver/Src\stm32f4xx_hal_pwr_ex.c ****   * @brief  Enters in Under-Drive STOP mode.
 499:C:/Users/LC/STM32Cube/Repository/STM32Cube_FW_F4_V1.28.0/Drivers/STM32F4xx_HAL_Driver/Src\stm32f4xx_hal_pwr_ex.c ****   *  
 500:C:/Users/LC/STM32Cube/Repository/STM32Cube_FW_F4_V1.28.0/Drivers/STM32F4xx_HAL_Driver/Src\stm32f4xx_hal_pwr_ex.c ****   * @note   This mode is only available for STM32F42xxx/STM32F43xxx/STM32F446xx/STM32F469xx/STM32F4
 501:C:/Users/LC/STM32Cube/Repository/STM32Cube_FW_F4_V1.28.0/Drivers/STM32F4xx_HAL_Driver/Src\stm32f4xx_hal_pwr_ex.c ****   * 
 502:C:/Users/LC/STM32Cube/Repository/STM32Cube_FW_F4_V1.28.0/Drivers/STM32F4xx_HAL_Driver/Src\stm32f4xx_hal_pwr_ex.c ****   * @note    This mode can be selected only when the Under-Drive is already active 
 503:C:/Users/LC/STM32Cube/Repository/STM32Cube_FW_F4_V1.28.0/Drivers/STM32F4xx_HAL_Driver/Src\stm32f4xx_hal_pwr_ex.c ****   *   
 504:C:/Users/LC/STM32Cube/Repository/STM32Cube_FW_F4_V1.28.0/Drivers/STM32F4xx_HAL_Driver/Src\stm32f4xx_hal_pwr_ex.c ****   * @note    This mode is enabled only with STOP low power mode.
 505:C:/Users/LC/STM32Cube/Repository/STM32Cube_FW_F4_V1.28.0/Drivers/STM32F4xx_HAL_Driver/Src\stm32f4xx_hal_pwr_ex.c ****   *          In this mode, the 1.2V domain is preserved in reduced leakage mode. This 
 506:C:/Users/LC/STM32Cube/Repository/STM32Cube_FW_F4_V1.28.0/Drivers/STM32F4xx_HAL_Driver/Src\stm32f4xx_hal_pwr_ex.c ****   *          mode is only available when the main regulator or the low power regulator 
 507:C:/Users/LC/STM32Cube/Repository/STM32Cube_FW_F4_V1.28.0/Drivers/STM32F4xx_HAL_Driver/Src\stm32f4xx_hal_pwr_ex.c ****   *          is in low voltage mode
 508:C:/Users/LC/STM32Cube/Repository/STM32Cube_FW_F4_V1.28.0/Drivers/STM32F4xx_HAL_Driver/Src\stm32f4xx_hal_pwr_ex.c ****   *        
 509:C:/Users/LC/STM32Cube/Repository/STM32Cube_FW_F4_V1.28.0/Drivers/STM32F4xx_HAL_Driver/Src\stm32f4xx_hal_pwr_ex.c ****   * @note   If the Under-drive mode was enabled, it is automatically disabled after 
 510:C:/Users/LC/STM32Cube/Repository/STM32Cube_FW_F4_V1.28.0/Drivers/STM32F4xx_HAL_Driver/Src\stm32f4xx_hal_pwr_ex.c ****   *         exiting Stop mode. 
 511:C:/Users/LC/STM32Cube/Repository/STM32Cube_FW_F4_V1.28.0/Drivers/STM32F4xx_HAL_Driver/Src\stm32f4xx_hal_pwr_ex.c ****   *         When the voltage regulator operates in Under-drive mode, an additional  
 512:C:/Users/LC/STM32Cube/Repository/STM32Cube_FW_F4_V1.28.0/Drivers/STM32F4xx_HAL_Driver/Src\stm32f4xx_hal_pwr_ex.c ****   *         startup delay is induced when waking up from Stop mode.
 513:C:/Users/LC/STM32Cube/Repository/STM32Cube_FW_F4_V1.28.0/Drivers/STM32F4xx_HAL_Driver/Src\stm32f4xx_hal_pwr_ex.c ****   *                    
 514:C:/Users/LC/STM32Cube/Repository/STM32Cube_FW_F4_V1.28.0/Drivers/STM32F4xx_HAL_Driver/Src\stm32f4xx_hal_pwr_ex.c ****   * @note   In Stop mode, all I/O pins keep the same state as in Run mode.
 515:C:/Users/LC/STM32Cube/Repository/STM32Cube_FW_F4_V1.28.0/Drivers/STM32F4xx_HAL_Driver/Src\stm32f4xx_hal_pwr_ex.c ****   *   
 516:C:/Users/LC/STM32Cube/Repository/STM32Cube_FW_F4_V1.28.0/Drivers/STM32F4xx_HAL_Driver/Src\stm32f4xx_hal_pwr_ex.c ****   * @note   When exiting Stop mode by issuing an interrupt or a wake-up event, 
 517:C:/Users/LC/STM32Cube/Repository/STM32Cube_FW_F4_V1.28.0/Drivers/STM32F4xx_HAL_Driver/Src\stm32f4xx_hal_pwr_ex.c ****   *         the HSI RC oscillator is selected as system clock.
 518:C:/Users/LC/STM32Cube/Repository/STM32Cube_FW_F4_V1.28.0/Drivers/STM32F4xx_HAL_Driver/Src\stm32f4xx_hal_pwr_ex.c ****   *           
 519:C:/Users/LC/STM32Cube/Repository/STM32Cube_FW_F4_V1.28.0/Drivers/STM32F4xx_HAL_Driver/Src\stm32f4xx_hal_pwr_ex.c ****   * @note   When the voltage regulator operates in low power mode, an additional 
 520:C:/Users/LC/STM32Cube/Repository/STM32Cube_FW_F4_V1.28.0/Drivers/STM32F4xx_HAL_Driver/Src\stm32f4xx_hal_pwr_ex.c ****   *         startup delay is incurred when waking up from Stop mode. 
 521:C:/Users/LC/STM32Cube/Repository/STM32Cube_FW_F4_V1.28.0/Drivers/STM32F4xx_HAL_Driver/Src\stm32f4xx_hal_pwr_ex.c ****   *         By keeping the internal regulator ON during Stop mode, the consumption 
 522:C:/Users/LC/STM32Cube/Repository/STM32Cube_FW_F4_V1.28.0/Drivers/STM32F4xx_HAL_Driver/Src\stm32f4xx_hal_pwr_ex.c ****   *         is higher although the startup time is reduced.
 523:C:/Users/LC/STM32Cube/Repository/STM32Cube_FW_F4_V1.28.0/Drivers/STM32F4xx_HAL_Driver/Src\stm32f4xx_hal_pwr_ex.c ****   *     
 524:C:/Users/LC/STM32Cube/Repository/STM32Cube_FW_F4_V1.28.0/Drivers/STM32F4xx_HAL_Driver/Src\stm32f4xx_hal_pwr_ex.c ****   * @param  Regulator specifies the regulator state in STOP mode.
 525:C:/Users/LC/STM32Cube/Repository/STM32Cube_FW_F4_V1.28.0/Drivers/STM32F4xx_HAL_Driver/Src\stm32f4xx_hal_pwr_ex.c ****   *          This parameter can be one of the following values:
 526:C:/Users/LC/STM32Cube/Repository/STM32Cube_FW_F4_V1.28.0/Drivers/STM32F4xx_HAL_Driver/Src\stm32f4xx_hal_pwr_ex.c ****   *            @arg PWR_MAINREGULATOR_UNDERDRIVE_ON:  Main Regulator in under-drive mode 
 527:C:/Users/LC/STM32Cube/Repository/STM32Cube_FW_F4_V1.28.0/Drivers/STM32F4xx_HAL_Driver/Src\stm32f4xx_hal_pwr_ex.c ****   *                 and Flash memory in power-down when the device is in Stop under-drive mode
 528:C:/Users/LC/STM32Cube/Repository/STM32Cube_FW_F4_V1.28.0/Drivers/STM32F4xx_HAL_Driver/Src\stm32f4xx_hal_pwr_ex.c ****   *            @arg PWR_LOWPOWERREGULATOR_UNDERDRIVE_ON:  Low Power Regulator in under-drive mode 
 529:C:/Users/LC/STM32Cube/Repository/STM32Cube_FW_F4_V1.28.0/Drivers/STM32F4xx_HAL_Driver/Src\stm32f4xx_hal_pwr_ex.c ****   *                and Flash memory in power-down when the device is in Stop under-drive mode
 530:C:/Users/LC/STM32Cube/Repository/STM32Cube_FW_F4_V1.28.0/Drivers/STM32F4xx_HAL_Driver/Src\stm32f4xx_hal_pwr_ex.c ****   * @param  STOPEntry specifies if STOP mode in entered with WFI or WFE instruction.
 531:C:/Users/LC/STM32Cube/Repository/STM32Cube_FW_F4_V1.28.0/Drivers/STM32F4xx_HAL_Driver/Src\stm32f4xx_hal_pwr_ex.c ****   *          This parameter can be one of the following values:
 532:C:/Users/LC/STM32Cube/Repository/STM32Cube_FW_F4_V1.28.0/Drivers/STM32F4xx_HAL_Driver/Src\stm32f4xx_hal_pwr_ex.c ****   *            @arg PWR_SLEEPENTRY_WFI: enter STOP mode with WFI instruction
 533:C:/Users/LC/STM32Cube/Repository/STM32Cube_FW_F4_V1.28.0/Drivers/STM32F4xx_HAL_Driver/Src\stm32f4xx_hal_pwr_ex.c ****   *            @arg PWR_SLEEPENTRY_WFE: enter STOP mode with WFE instruction
 534:C:/Users/LC/STM32Cube/Repository/STM32Cube_FW_F4_V1.28.0/Drivers/STM32F4xx_HAL_Driver/Src\stm32f4xx_hal_pwr_ex.c ****   * @retval None
 535:C:/Users/LC/STM32Cube/Repository/STM32Cube_FW_F4_V1.28.0/Drivers/STM32F4xx_HAL_Driver/Src\stm32f4xx_hal_pwr_ex.c ****   */
 536:C:/Users/LC/STM32Cube/Repository/STM32Cube_FW_F4_V1.28.0/Drivers/STM32F4xx_HAL_Driver/Src\stm32f4xx_hal_pwr_ex.c **** HAL_StatusTypeDef HAL_PWREx_EnterUnderDriveSTOPMode(uint32_t Regulator, uint8_t STOPEntry)
 537:C:/Users/LC/STM32Cube/Repository/STM32Cube_FW_F4_V1.28.0/Drivers/STM32F4xx_HAL_Driver/Src\stm32f4xx_hal_pwr_ex.c **** {
 694              		.loc 1 537 1 is_stmt 1 view -0
 695              		.cfi_startproc
 696              		@ args = 0, pretend = 0, frame = 8
 697              		@ frame_needed = 0, uses_anonymous_args = 0
 698              		@ link register save eliminated.
 699              		.loc 1 537 1 is_stmt 0 view .LVU176
 700 0000 10B4     		push	{r4}
 701              	.LCFI13:
 702              		.cfi_def_cfa_offset 4
 703              		.cfi_offset 4, -4
 704 0002 83B0     		sub	sp, sp, #12
 705              	.LCFI14:
 706              		.cfi_def_cfa_offset 16
 538:C:/Users/LC/STM32Cube/Repository/STM32Cube_FW_F4_V1.28.0/Drivers/STM32F4xx_HAL_Driver/Src\stm32f4xx_hal_pwr_ex.c ****   uint32_t tmpreg1 = 0U;
ARM GAS  C:\Users\LC\AppData\Local\Temp\cctO9Ld3.s 			page 23


 707              		.loc 1 538 3 is_stmt 1 view .LVU177
 708              	.LVL41:
 539:C:/Users/LC/STM32Cube/Repository/STM32Cube_FW_F4_V1.28.0/Drivers/STM32F4xx_HAL_Driver/Src\stm32f4xx_hal_pwr_ex.c **** 
 540:C:/Users/LC/STM32Cube/Repository/STM32Cube_FW_F4_V1.28.0/Drivers/STM32F4xx_HAL_Driver/Src\stm32f4xx_hal_pwr_ex.c ****   /* Check the parameters */
 541:C:/Users/LC/STM32Cube/Repository/STM32Cube_FW_F4_V1.28.0/Drivers/STM32F4xx_HAL_Driver/Src\stm32f4xx_hal_pwr_ex.c ****   assert_param(IS_PWR_REGULATOR_UNDERDRIVE(Regulator));
 709              		.loc 1 541 3 view .LVU178
 542:C:/Users/LC/STM32Cube/Repository/STM32Cube_FW_F4_V1.28.0/Drivers/STM32F4xx_HAL_Driver/Src\stm32f4xx_hal_pwr_ex.c ****   assert_param(IS_PWR_STOP_ENTRY(STOPEntry));
 710              		.loc 1 542 3 view .LVU179
 543:C:/Users/LC/STM32Cube/Repository/STM32Cube_FW_F4_V1.28.0/Drivers/STM32F4xx_HAL_Driver/Src\stm32f4xx_hal_pwr_ex.c ****   
 544:C:/Users/LC/STM32Cube/Repository/STM32Cube_FW_F4_V1.28.0/Drivers/STM32F4xx_HAL_Driver/Src\stm32f4xx_hal_pwr_ex.c ****   /* Enable Power ctrl clock */
 545:C:/Users/LC/STM32Cube/Repository/STM32Cube_FW_F4_V1.28.0/Drivers/STM32F4xx_HAL_Driver/Src\stm32f4xx_hal_pwr_ex.c ****   __HAL_RCC_PWR_CLK_ENABLE();
 711              		.loc 1 545 3 view .LVU180
 712              	.LBB6:
 713              		.loc 1 545 3 view .LVU181
 714 0004 0023     		movs	r3, #0
 715 0006 0193     		str	r3, [sp, #4]
 716              		.loc 1 545 3 view .LVU182
 717 0008 164A     		ldr	r2, .L77
 718 000a 146C     		ldr	r4, [r2, #64]
 719 000c 44F08054 		orr	r4, r4, #268435456
 720 0010 1464     		str	r4, [r2, #64]
 721              		.loc 1 545 3 view .LVU183
 722 0012 126C     		ldr	r2, [r2, #64]
 723 0014 02F08052 		and	r2, r2, #268435456
 724 0018 0192     		str	r2, [sp, #4]
 725              		.loc 1 545 3 view .LVU184
 726 001a 019B     		ldr	r3, [sp, #4]
 727              	.LBE6:
 728              		.loc 1 545 3 view .LVU185
 546:C:/Users/LC/STM32Cube/Repository/STM32Cube_FW_F4_V1.28.0/Drivers/STM32F4xx_HAL_Driver/Src\stm32f4xx_hal_pwr_ex.c ****   /* Enable the Under-drive Mode ---------------------------------------------*/
 547:C:/Users/LC/STM32Cube/Repository/STM32Cube_FW_F4_V1.28.0/Drivers/STM32F4xx_HAL_Driver/Src\stm32f4xx_hal_pwr_ex.c ****   /* Clear Under-drive flag */
 548:C:/Users/LC/STM32Cube/Repository/STM32Cube_FW_F4_V1.28.0/Drivers/STM32F4xx_HAL_Driver/Src\stm32f4xx_hal_pwr_ex.c ****   __HAL_PWR_CLEAR_ODRUDR_FLAG();
 729              		.loc 1 548 3 view .LVU186
 730 001c 124A     		ldr	r2, .L77+4
 731 001e 5468     		ldr	r4, [r2, #4]
 732 0020 44F44024 		orr	r4, r4, #786432
 733 0024 5460     		str	r4, [r2, #4]
 549:C:/Users/LC/STM32Cube/Repository/STM32Cube_FW_F4_V1.28.0/Drivers/STM32F4xx_HAL_Driver/Src\stm32f4xx_hal_pwr_ex.c ****   
 550:C:/Users/LC/STM32Cube/Repository/STM32Cube_FW_F4_V1.28.0/Drivers/STM32F4xx_HAL_Driver/Src\stm32f4xx_hal_pwr_ex.c ****   /* Enable the Under-drive */ 
 551:C:/Users/LC/STM32Cube/Repository/STM32Cube_FW_F4_V1.28.0/Drivers/STM32F4xx_HAL_Driver/Src\stm32f4xx_hal_pwr_ex.c ****   __HAL_PWR_UNDERDRIVE_ENABLE();
 734              		.loc 1 551 3 view .LVU187
 735 0026 1468     		ldr	r4, [r2]
 736 0028 44F44024 		orr	r4, r4, #786432
 737 002c 1460     		str	r4, [r2]
 552:C:/Users/LC/STM32Cube/Repository/STM32Cube_FW_F4_V1.28.0/Drivers/STM32F4xx_HAL_Driver/Src\stm32f4xx_hal_pwr_ex.c **** 
 553:C:/Users/LC/STM32Cube/Repository/STM32Cube_FW_F4_V1.28.0/Drivers/STM32F4xx_HAL_Driver/Src\stm32f4xx_hal_pwr_ex.c ****   /* Select the regulator state in STOP mode ---------------------------------*/
 554:C:/Users/LC/STM32Cube/Repository/STM32Cube_FW_F4_V1.28.0/Drivers/STM32F4xx_HAL_Driver/Src\stm32f4xx_hal_pwr_ex.c ****   tmpreg1 = PWR->CR;
 738              		.loc 1 554 3 view .LVU188
 739              		.loc 1 554 11 is_stmt 0 view .LVU189
 740 002e 1368     		ldr	r3, [r2]
 741              	.LVL42:
 555:C:/Users/LC/STM32Cube/Repository/STM32Cube_FW_F4_V1.28.0/Drivers/STM32F4xx_HAL_Driver/Src\stm32f4xx_hal_pwr_ex.c ****   /* Clear PDDS, LPDS, MRLUDS and LPLUDS bits */
 556:C:/Users/LC/STM32Cube/Repository/STM32Cube_FW_F4_V1.28.0/Drivers/STM32F4xx_HAL_Driver/Src\stm32f4xx_hal_pwr_ex.c ****   tmpreg1 &= (uint32_t)~(PWR_CR_PDDS | PWR_CR_LPDS | PWR_CR_LPUDS | PWR_CR_MRUDS);
 742              		.loc 1 556 3 is_stmt 1 view .LVU190
 743              		.loc 1 556 11 is_stmt 0 view .LVU191
 744 0030 23F44063 		bic	r3, r3, #3072
 745              	.LVL43:
ARM GAS  C:\Users\LC\AppData\Local\Temp\cctO9Ld3.s 			page 24


 746              		.loc 1 556 11 view .LVU192
 747 0034 23F00303 		bic	r3, r3, #3
 748              	.LVL44:
 557:C:/Users/LC/STM32Cube/Repository/STM32Cube_FW_F4_V1.28.0/Drivers/STM32F4xx_HAL_Driver/Src\stm32f4xx_hal_pwr_ex.c ****   
 558:C:/Users/LC/STM32Cube/Repository/STM32Cube_FW_F4_V1.28.0/Drivers/STM32F4xx_HAL_Driver/Src\stm32f4xx_hal_pwr_ex.c ****   /* Set LPDS, MRLUDS and LPLUDS bits according to PWR_Regulator value */
 559:C:/Users/LC/STM32Cube/Repository/STM32Cube_FW_F4_V1.28.0/Drivers/STM32F4xx_HAL_Driver/Src\stm32f4xx_hal_pwr_ex.c ****   tmpreg1 |= Regulator;
 749              		.loc 1 559 3 is_stmt 1 view .LVU193
 750              		.loc 1 559 11 is_stmt 0 view .LVU194
 751 0038 0343     		orrs	r3, r3, r0
 752              	.LVL45:
 560:C:/Users/LC/STM32Cube/Repository/STM32Cube_FW_F4_V1.28.0/Drivers/STM32F4xx_HAL_Driver/Src\stm32f4xx_hal_pwr_ex.c ****   
 561:C:/Users/LC/STM32Cube/Repository/STM32Cube_FW_F4_V1.28.0/Drivers/STM32F4xx_HAL_Driver/Src\stm32f4xx_hal_pwr_ex.c ****   /* Store the new value */
 562:C:/Users/LC/STM32Cube/Repository/STM32Cube_FW_F4_V1.28.0/Drivers/STM32F4xx_HAL_Driver/Src\stm32f4xx_hal_pwr_ex.c ****   PWR->CR = tmpreg1;
 753              		.loc 1 562 3 is_stmt 1 view .LVU195
 754              		.loc 1 562 11 is_stmt 0 view .LVU196
 755 003a 1360     		str	r3, [r2]
 563:C:/Users/LC/STM32Cube/Repository/STM32Cube_FW_F4_V1.28.0/Drivers/STM32F4xx_HAL_Driver/Src\stm32f4xx_hal_pwr_ex.c ****   
 564:C:/Users/LC/STM32Cube/Repository/STM32Cube_FW_F4_V1.28.0/Drivers/STM32F4xx_HAL_Driver/Src\stm32f4xx_hal_pwr_ex.c ****   /* Set SLEEPDEEP bit of Cortex System Control Register */
 565:C:/Users/LC/STM32Cube/Repository/STM32Cube_FW_F4_V1.28.0/Drivers/STM32F4xx_HAL_Driver/Src\stm32f4xx_hal_pwr_ex.c ****   SCB->SCR |= SCB_SCR_SLEEPDEEP_Msk;
 756              		.loc 1 565 3 is_stmt 1 view .LVU197
 757              		.loc 1 565 12 is_stmt 0 view .LVU198
 758 003c 0B4A     		ldr	r2, .L77+8
 759 003e 1369     		ldr	r3, [r2, #16]
 760              	.LVL46:
 761              		.loc 1 565 12 view .LVU199
 762 0040 43F00403 		orr	r3, r3, #4
 763 0044 1361     		str	r3, [r2, #16]
 764              	.LVL47:
 566:C:/Users/LC/STM32Cube/Repository/STM32Cube_FW_F4_V1.28.0/Drivers/STM32F4xx_HAL_Driver/Src\stm32f4xx_hal_pwr_ex.c ****   
 567:C:/Users/LC/STM32Cube/Repository/STM32Cube_FW_F4_V1.28.0/Drivers/STM32F4xx_HAL_Driver/Src\stm32f4xx_hal_pwr_ex.c ****   /* Select STOP mode entry --------------------------------------------------*/
 568:C:/Users/LC/STM32Cube/Repository/STM32Cube_FW_F4_V1.28.0/Drivers/STM32F4xx_HAL_Driver/Src\stm32f4xx_hal_pwr_ex.c ****   if(STOPEntry == PWR_SLEEPENTRY_WFI)
 765              		.loc 1 568 3 is_stmt 1 view .LVU200
 766              		.loc 1 568 5 is_stmt 0 view .LVU201
 767 0046 0129     		cmp	r1, #1
 768 0048 0AD0     		beq	.L76
 569:C:/Users/LC/STM32Cube/Repository/STM32Cube_FW_F4_V1.28.0/Drivers/STM32F4xx_HAL_Driver/Src\stm32f4xx_hal_pwr_ex.c ****   {   
 570:C:/Users/LC/STM32Cube/Repository/STM32Cube_FW_F4_V1.28.0/Drivers/STM32F4xx_HAL_Driver/Src\stm32f4xx_hal_pwr_ex.c ****     /* Request Wait For Interrupt */
 571:C:/Users/LC/STM32Cube/Repository/STM32Cube_FW_F4_V1.28.0/Drivers/STM32F4xx_HAL_Driver/Src\stm32f4xx_hal_pwr_ex.c ****     __WFI();
 572:C:/Users/LC/STM32Cube/Repository/STM32Cube_FW_F4_V1.28.0/Drivers/STM32F4xx_HAL_Driver/Src\stm32f4xx_hal_pwr_ex.c ****   }
 573:C:/Users/LC/STM32Cube/Repository/STM32Cube_FW_F4_V1.28.0/Drivers/STM32F4xx_HAL_Driver/Src\stm32f4xx_hal_pwr_ex.c ****   else
 574:C:/Users/LC/STM32Cube/Repository/STM32Cube_FW_F4_V1.28.0/Drivers/STM32F4xx_HAL_Driver/Src\stm32f4xx_hal_pwr_ex.c ****   {
 575:C:/Users/LC/STM32Cube/Repository/STM32Cube_FW_F4_V1.28.0/Drivers/STM32F4xx_HAL_Driver/Src\stm32f4xx_hal_pwr_ex.c ****     /* Request Wait For Event */
 576:C:/Users/LC/STM32Cube/Repository/STM32Cube_FW_F4_V1.28.0/Drivers/STM32F4xx_HAL_Driver/Src\stm32f4xx_hal_pwr_ex.c ****     __WFE();
 769              		.loc 1 576 5 is_stmt 1 view .LVU202
 770              		.syntax unified
 771              	@ 576 "C:/Users/LC/STM32Cube/Repository/STM32Cube_FW_F4_V1.28.0/Drivers/STM32F4xx_HAL_Driver/Src/st
 772 004a 20BF     		wfe
 773              	@ 0 "" 2
 774              		.thumb
 775              		.syntax unified
 776              	.L74:
 577:C:/Users/LC/STM32Cube/Repository/STM32Cube_FW_F4_V1.28.0/Drivers/STM32F4xx_HAL_Driver/Src\stm32f4xx_hal_pwr_ex.c ****   }
 578:C:/Users/LC/STM32Cube/Repository/STM32Cube_FW_F4_V1.28.0/Drivers/STM32F4xx_HAL_Driver/Src\stm32f4xx_hal_pwr_ex.c ****   /* Reset SLEEPDEEP bit of Cortex System Control Register */
 579:C:/Users/LC/STM32Cube/Repository/STM32Cube_FW_F4_V1.28.0/Drivers/STM32F4xx_HAL_Driver/Src\stm32f4xx_hal_pwr_ex.c ****   SCB->SCR &= (uint32_t)~((uint32_t)SCB_SCR_SLEEPDEEP_Msk);
 777              		.loc 1 579 3 view .LVU203
 778              		.loc 1 579 12 is_stmt 0 view .LVU204
 779 004c 074A     		ldr	r2, .L77+8
ARM GAS  C:\Users\LC\AppData\Local\Temp\cctO9Ld3.s 			page 25


 780 004e 1369     		ldr	r3, [r2, #16]
 781 0050 23F00403 		bic	r3, r3, #4
 782 0054 1361     		str	r3, [r2, #16]
 580:C:/Users/LC/STM32Cube/Repository/STM32Cube_FW_F4_V1.28.0/Drivers/STM32F4xx_HAL_Driver/Src\stm32f4xx_hal_pwr_ex.c **** 
 581:C:/Users/LC/STM32Cube/Repository/STM32Cube_FW_F4_V1.28.0/Drivers/STM32F4xx_HAL_Driver/Src\stm32f4xx_hal_pwr_ex.c ****   return HAL_OK;  
 783              		.loc 1 581 3 is_stmt 1 view .LVU205
 582:C:/Users/LC/STM32Cube/Repository/STM32Cube_FW_F4_V1.28.0/Drivers/STM32F4xx_HAL_Driver/Src\stm32f4xx_hal_pwr_ex.c **** }
 784              		.loc 1 582 1 is_stmt 0 view .LVU206
 785 0056 0020     		movs	r0, #0
 786              	.LVL48:
 787              		.loc 1 582 1 view .LVU207
 788 0058 03B0     		add	sp, sp, #12
 789              	.LCFI15:
 790              		.cfi_remember_state
 791              		.cfi_def_cfa_offset 4
 792              		@ sp needed
 793 005a 5DF8044B 		ldr	r4, [sp], #4
 794              	.LCFI16:
 795              		.cfi_restore 4
 796              		.cfi_def_cfa_offset 0
 797 005e 7047     		bx	lr
 798              	.LVL49:
 799              	.L76:
 800              	.LCFI17:
 801              		.cfi_restore_state
 571:C:/Users/LC/STM32Cube/Repository/STM32Cube_FW_F4_V1.28.0/Drivers/STM32F4xx_HAL_Driver/Src\stm32f4xx_hal_pwr_ex.c ****   }
 802              		.loc 1 571 5 is_stmt 1 view .LVU208
 803              		.syntax unified
 804              	@ 571 "C:/Users/LC/STM32Cube/Repository/STM32Cube_FW_F4_V1.28.0/Drivers/STM32F4xx_HAL_Driver/Src/st
 805 0060 30BF     		wfi
 806              	@ 0 "" 2
 807              		.thumb
 808              		.syntax unified
 809 0062 F3E7     		b	.L74
 810              	.L78:
 811              		.align	2
 812              	.L77:
 813 0064 00380240 		.word	1073887232
 814 0068 00700040 		.word	1073770496
 815 006c 00ED00E0 		.word	-536810240
 816              		.cfi_endproc
 817              	.LFE142:
 819              		.text
 820              	.Letext0:
 821              		.file 2 "c:\\program files (x86)\\gnu arm embedded toolchain\\10 2021.10\\arm-none-eabi\\include\\
 822              		.file 3 "c:\\program files (x86)\\gnu arm embedded toolchain\\10 2021.10\\arm-none-eabi\\include\\
 823              		.file 4 "C:/Users/LC/STM32Cube/Repository/STM32Cube_FW_F4_V1.28.0/Drivers/CMSIS/Include/core_cm4.h
 824              		.file 5 "C:/Users/LC/STM32Cube/Repository/STM32Cube_FW_F4_V1.28.0/Drivers/CMSIS/Device/ST/STM32F4x
 825              		.file 6 "C:/Users/LC/STM32Cube/Repository/STM32Cube_FW_F4_V1.28.0/Drivers/CMSIS/Device/ST/STM32F4x
 826              		.file 7 "C:/Users/LC/STM32Cube/Repository/STM32Cube_FW_F4_V1.28.0/Drivers/STM32F4xx_HAL_Driver/Inc
 827              		.file 8 "C:/Users/LC/STM32Cube/Repository/STM32Cube_FW_F4_V1.28.0/Drivers/STM32F4xx_HAL_Driver/Inc
ARM GAS  C:\Users\LC\AppData\Local\Temp\cctO9Ld3.s 			page 26

